;--------------------------------------------------------
; File Created by SDCC : free open source ANSI-C Compiler
; Version 3.9.3 #11378 (MINGW32)
;--------------------------------------------------------
	.module e4vm_boolean
	.optsdcc -mz80
	
;--------------------------------------------------------
; Public variables in this module
;--------------------------------------------------------
	.globl _e4vm_boolean__init
	.globl _e4vm_utils__init
	.globl _e4vm_utils_true_const
	.globl _e4vm_utils_false_const
	.globl _Console_WriteStr_C_COMPACT
	.globl _Console_WriteLn_COMPACT
	.globl _e4vm_boolean_true
	.globl _e4vm_boolean_false
	.globl _e4vm_boolean_not
	.globl _e4vm_boolean_invert
	.globl _e4vm_boolean_or
	.globl _e4vm_boolean_and
	.globl _e4vm_boolean_xor
;--------------------------------------------------------
; special function registers
;--------------------------------------------------------
;--------------------------------------------------------
; ram data
;--------------------------------------------------------
	.area _DATA
;--------------------------------------------------------
; ram data
;--------------------------------------------------------
	.area _INITIALIZED
;--------------------------------------------------------
; absolute external ram data
;--------------------------------------------------------
	.area _DABS (ABS)
;--------------------------------------------------------
; global & static initialisations
;--------------------------------------------------------
	.area _HOME
	.area _GSINIT
	.area _GSFINAL
	.area _GSINIT
;--------------------------------------------------------
; Home
;--------------------------------------------------------
	.area _HOME
	.area _HOME
;--------------------------------------------------------
; code
;--------------------------------------------------------
	.area _CODE
;e4vm_boolean.c:28: void e4vm_boolean_true (e4vm_type_x4thPtr *v)
;	---------------------------------
; Function e4vm_boolean_true
; ---------------------------------
_e4vm_boolean_true::
	call	___sdcc_enter_ix
	push	af
;e4vm_boolean.c:30: Console_WriteStrLn((CHAR*)"true", 5);
	ld	hl, #___str_0
	call	_Console_WriteStr_C_COMPACT
	call	_Console_WriteLn_COMPACT
;e4vm_boolean.c:31: (*v)->ds[(*v)->ds_p] = e4vm_utils_true_const(v);
	ld	c, 4 (ix)
	ld	b, 5 (ix)
	ld	l, c
	ld	h, b
	ld	a, (hl)
	inc	hl
	ld	h, (hl)
	ld	l, a
	add	a, #0x44
	ld	e, a
	ld	a, h
	adc	a, #0x00
	ld	d, a
	push	bc
	ld	bc, #0x0086
	add	hl, bc
	pop	bc
	ld	a, (hl)
	inc	hl
	ld	h, (hl)
	ld	l, a
	add	hl, hl
	add	hl, de
	push	bc
	push	hl
	push	bc
	call	_e4vm_utils_true_const
	pop	af
	ld	-2 (ix), l
	ld	-1 (ix), h
	pop	de
	pop	bc
	ld	a, -2 (ix)
	ld	(de), a
	inc	de
	ld	a, -1 (ix)
	ld	(de), a
;e4vm_boolean.c:32: (*v)->ds_p = (*v)->ds_p + 1;
	ld	l, c
	ld	h, b
	ld	c, (hl)
	inc	hl
	ld	b, (hl)
	ld	hl, #0x0086
	add	hl, bc
	ld	c, (hl)
	inc	hl
	ld	b, (hl)
	dec	hl
	inc	bc
	ld	a, b
	ld	(hl), c
	inc	hl
	ld	(hl), a
;e4vm_boolean.c:33: }
	pop	af
	pop	ix
	ret
___str_0:
	.ascii "true"
	.db 0x00
;e4vm_boolean.c:36: void e4vm_boolean_false (e4vm_type_x4thPtr *v)
;	---------------------------------
; Function e4vm_boolean_false
; ---------------------------------
_e4vm_boolean_false::
	call	___sdcc_enter_ix
	push	af
;e4vm_boolean.c:38: Console_WriteStrLn((CHAR*)"false", 6);
	ld	hl, #___str_1
	call	_Console_WriteStr_C_COMPACT
	call	_Console_WriteLn_COMPACT
;e4vm_boolean.c:39: (*v)->ds[(*v)->ds_p] = e4vm_utils_false_const(v);
	ld	c, 4 (ix)
	ld	b, 5 (ix)
	ld	l, c
	ld	h, b
	ld	a, (hl)
	inc	hl
	ld	h, (hl)
	ld	l, a
	add	a, #0x44
	ld	e, a
	ld	a, h
	adc	a, #0x00
	ld	d, a
	push	bc
	ld	bc, #0x0086
	add	hl, bc
	pop	bc
	ld	a, (hl)
	inc	hl
	ld	h, (hl)
	ld	l, a
	add	hl, hl
	add	hl, de
	push	bc
	push	hl
	push	bc
	call	_e4vm_utils_false_const
	pop	af
	ld	-2 (ix), l
	ld	-1 (ix), h
	pop	de
	pop	bc
	ld	a, -2 (ix)
	ld	(de), a
	inc	de
	ld	a, -1 (ix)
	ld	(de), a
;e4vm_boolean.c:40: (*v)->ds_p = (*v)->ds_p + 1;
	ld	l, c
	ld	h, b
	ld	c, (hl)
	inc	hl
	ld	b, (hl)
	ld	hl, #0x0086
	add	hl, bc
	ld	c, (hl)
	inc	hl
	ld	b, (hl)
	dec	hl
	inc	bc
	ld	a, b
	ld	(hl), c
	inc	hl
	ld	(hl), a
;e4vm_boolean.c:41: }
	pop	af
	pop	ix
	ret
___str_1:
	.ascii "false"
	.db 0x00
;e4vm_boolean.c:44: void e4vm_boolean_not (e4vm_type_x4thPtr *v)
;	---------------------------------
; Function e4vm_boolean_not
; ---------------------------------
_e4vm_boolean_not::
	call	___sdcc_enter_ix
	push	af
	push	af
;e4vm_boolean.c:46: Console_WriteStrLn((CHAR*)"not", 4);
	ld	hl, #___str_2
	call	_Console_WriteStr_C_COMPACT
	call	_Console_WriteLn_COMPACT
;e4vm_boolean.c:47: if ((*v)->ds[(*v)->ds_p - 1] == e4vm_utils_true_const(v)) {
	ld	c, 4 (ix)
	ld	b, 5 (ix)
	ld	l, c
	ld	h, b
	ld	a, (hl)
	inc	hl
	ld	h, (hl)
	ld	l, a
	add	a, #0x44
	ld	e, a
	ld	a, h
	adc	a, #0x00
	ld	d, a
	push	bc
	ld	bc, #0x0086
	add	hl, bc
	pop	bc
	ld	a, (hl)
	dec	a
	add	a, a
	add	a, e
	ld	e, a
	ld	a, #0x00
	adc	a, d
	ld	d, a
	push	bc
	push	de
	push	bc
	call	_e4vm_utils_true_const
	pop	af
	ld	-4 (ix), l
	ld	-3 (ix), h
	pop	de
	pop	bc
	ld	a, (de)
	ld	-2 (ix), a
	inc	de
	ld	a, (de)
	ld	-1 (ix), a
	ld	l, c
	ld	h, b
	ld	a, (hl)
	inc	hl
	ld	h, (hl)
;e4vm_boolean.c:48: (*v)->ds[(*v)->ds_p - 1] = e4vm_utils_false_const(v);
	ld	l, a
	add	a, #0x44
	ld	e, a
	ld	a, h
	adc	a, #0x00
	ld	d, a
	push	bc
	ld	bc, #0x0086
	add	hl, bc
	pop	bc
	ld	a, (hl)
	dec	a
	add	a, a
	add	a, e
	ld	e, a
	ld	a, #0x00
	adc	a, d
	ld	d, a
;e4vm_boolean.c:47: if ((*v)->ds[(*v)->ds_p - 1] == e4vm_utils_true_const(v)) {
	ld	a, -4 (ix)
	sub	a, -2 (ix)
	jr	NZ,00105$
	ld	a, -3 (ix)
	sub	a, -1 (ix)
	jr	NZ,00105$
;e4vm_boolean.c:48: (*v)->ds[(*v)->ds_p - 1] = e4vm_utils_false_const(v);
	push	de
	push	bc
	call	_e4vm_utils_false_const
	pop	af
	ld	c, l
	ld	b, h
	pop	de
	ld	a, c
	ld	(de), a
	inc	de
	ld	a, b
	ld	(de), a
	jr	00107$
00105$:
;e4vm_boolean.c:50: if ((*v)->ds[(*v)->ds_p - 1] == e4vm_utils_false_const(v)) {
	push	bc
	push	de
	push	bc
	call	_e4vm_utils_false_const
	pop	af
	ld	-2 (ix), l
	ld	-1 (ix), h
	pop	de
	pop	bc
	ex	de,hl
	ld	e, (hl)
	inc	hl
	ld	d, (hl)
	ld	l, -2 (ix)
	ld	h, -1 (ix)
	cp	a, a
	sbc	hl, de
	jr	NZ,00102$
;e4vm_boolean.c:51: (*v)->ds[(*v)->ds_p - 1] = e4vm_utils_true_const(v);
	ld	l, c
	ld	h, b
	ld	a, (hl)
	inc	hl
	ld	h, (hl)
	ld	l, a
	add	a, #0x44
	ld	e, a
	ld	a, h
	adc	a, #0x00
	ld	d, a
	push	bc
	ld	bc, #0x0086
	add	hl, bc
	pop	bc
	ld	a, (hl)
	dec	a
	add	a, a
	add	a, e
	ld	e, a
	ld	a, #0x00
	adc	a, d
	ld	d, a
	push	de
	push	bc
	call	_e4vm_utils_true_const
	pop	af
	ld	c, l
	ld	b, h
	pop	de
	ld	a, c
	ld	(de), a
	inc	de
	ld	a, b
	ld	(de), a
	jr	00107$
00102$:
;e4vm_boolean.c:53: Console_WriteStrLn((CHAR*)"not logical", 12);
	ld	hl, #___str_3
	call	_Console_WriteStr_C_COMPACT
	call	_Console_WriteLn_COMPACT
00107$:
;e4vm_boolean.c:56: }
	ld	sp, ix
	pop	ix
	ret
___str_2:
	.ascii "not"
	.db 0x00
___str_3:
	.ascii "not logical"
	.db 0x00
;e4vm_boolean.c:59: void e4vm_boolean_invert (e4vm_type_x4thPtr *v)
;	---------------------------------
; Function e4vm_boolean_invert
; ---------------------------------
_e4vm_boolean_invert::
	call	___sdcc_enter_ix
;e4vm_boolean.c:61: Console_WriteStrLn((CHAR*)"invert", 7);
	ld	hl, #___str_4
	call	_Console_WriteStr_C_COMPACT
	call	_Console_WriteLn_COMPACT
;e4vm_boolean.c:62: (*v)->ds[(*v)->ds_p - 1] = e4vm_boolean_BitwiseNot((*v)->ds[(*v)->ds_p - 1]);
	ld	l, 4 (ix)
	ld	h, 5 (ix)
	ld	c, (hl)
	inc	hl
	ld	b, (hl)
	ld	hl, #0x0044
	add	hl, bc
	ex	de, hl
	ld	l, c
	ld	h, b
	ld	bc, #0x0086
	add	hl, bc
	ld	a, (hl)
	dec	a
	add	a, a
	ld	l, a
	ld	h, #0x00
	add	hl, de
	ld	b, (hl)
	inc	hl
	ld	a, (hl)
	dec	hl
	cpl
	ld	c, a
	ld	a, b
	cpl
	ld	(hl), a
	inc	hl
	ld	(hl), c
;e4vm_boolean.c:63: }
	pop	ix
	ret
___str_4:
	.ascii "invert"
	.db 0x00
;e4vm_boolean.c:66: void e4vm_boolean_or (e4vm_type_x4thPtr *v)
;	---------------------------------
; Function e4vm_boolean_or
; ---------------------------------
_e4vm_boolean_or::
	call	___sdcc_enter_ix
	push	af
;e4vm_boolean.c:68: Console_WriteStrLn((CHAR*)"or", 3);
	ld	hl, #___str_5
	call	_Console_WriteStr_C_COMPACT
	call	_Console_WriteLn_COMPACT
;e4vm_boolean.c:69: (*v)->ds[(*v)->ds_p - 2] = e4vm_boolean_BitwiseOR((*v)->ds[(*v)->ds_p - 2], (*v)->ds[(*v)->ds_p - 1]);
	ld	a, 4 (ix)
	ld	-2 (ix), a
	ld	a, 5 (ix)
	ld	-1 (ix), a
	pop	hl
	push	hl
	ld	c, (hl)
	inc	hl
	ld	b, (hl)
	ld	hl, #0x0044
	add	hl, bc
	ex	de, hl
	ld	l, c
	ld	h, b
	ld	bc, #0x0086
	add	hl, bc
	ld	l, (hl)
	ld	a, l
	dec	a
	dec	a
	add	a, a
	add	a, e
	ld	c, a
	ld	a, #0x00
	adc	a, d
	ld	b, a
	dec	l
	sla	l
	ld	h, #0x00
	add	hl, de
	ld	e, (hl)
	inc	hl
	ld	d, (hl)
	ld	l, c
	ld	h, b
	ld	a, (hl)
	inc	hl
	ld	h, (hl)
	or	a,e
	ld	e, a
	ld	a, d
	or	a, h
	ld	d, a
	ld	a, e
	ld	(bc), a
	inc	bc
	ld	a, d
	ld	(bc), a
;e4vm_boolean.c:70: (*v)->ds_p = (*v)->ds_p - 1;
	pop	hl
	push	hl
	ld	c, (hl)
	inc	hl
	ld	b, (hl)
	ld	hl, #0x0086
	add	hl, bc
	ld	c, (hl)
	inc	hl
	ld	b, (hl)
	dec	hl
	dec	bc
	ld	(hl), c
	inc	hl
	ld	(hl), b
;e4vm_boolean.c:71: }
	pop	af
	pop	ix
	ret
___str_5:
	.ascii "or"
	.db 0x00
;e4vm_boolean.c:74: void e4vm_boolean_and (e4vm_type_x4thPtr *v)
;	---------------------------------
; Function e4vm_boolean_and
; ---------------------------------
_e4vm_boolean_and::
	call	___sdcc_enter_ix
	push	af
	push	af
;e4vm_boolean.c:76: Console_WriteStrLn((CHAR*)"and", 4);
	ld	hl, #___str_6
	call	_Console_WriteStr_C_COMPACT
	call	_Console_WriteLn_COMPACT
;e4vm_boolean.c:77: (*v)->ds[(*v)->ds_p - 2] = e4vm_boolean_BitwiseAND((*v)->ds[(*v)->ds_p - 2], (*v)->ds[(*v)->ds_p - 1]);
	ld	a, 4 (ix)
	ld	-4 (ix), a
	ld	a, 5 (ix)
	ld	-3 (ix), a
	pop	hl
	push	hl
	ld	c, (hl)
	inc	hl
	ld	b, (hl)
	ld	hl, #0x0044
	add	hl, bc
	ex	de, hl
	ld	l, c
	ld	h, b
	ld	bc, #0x0086
	add	hl, bc
	ld	l, (hl)
	ld	a, l
	dec	a
	dec	a
	add	a, a
	add	a, e
	ld	c, a
	ld	a, #0x00
	adc	a, d
	ld	b, a
	ld	a, l
	dec	a
	add	a, a
	add	a, e
	ld	-2 (ix), a
	ld	a, #0x00
	adc	a, d
	ld	-1 (ix), a
	ld	l, c
	ld	h, b
	ld	e, (hl)
	inc	hl
	ld	d, (hl)
	ld	l, -2 (ix)
	ld	h, -1 (ix)
	ld	a, (hl)
	inc	hl
	ld	h, (hl)
	and	a, e
	ld	e, a
	ld	a, h
	and	a, d
	ld	d, a
	ld	a, e
	ld	(bc), a
	inc	bc
	ld	a, d
	ld	(bc), a
;e4vm_boolean.c:78: (*v)->ds_p = (*v)->ds_p - 1;
	pop	hl
	push	hl
	ld	c, (hl)
	inc	hl
	ld	b, (hl)
	ld	hl, #0x0086
	add	hl, bc
	ld	c, (hl)
	inc	hl
	ld	b, (hl)
	dec	hl
	dec	bc
	ld	(hl), c
	inc	hl
	ld	(hl), b
;e4vm_boolean.c:79: }
	ld	sp, ix
	pop	ix
	ret
___str_6:
	.ascii "and"
	.db 0x00
;e4vm_boolean.c:82: void e4vm_boolean_xor (e4vm_type_x4thPtr *v)
;	---------------------------------
; Function e4vm_boolean_xor
; ---------------------------------
_e4vm_boolean_xor::
	call	___sdcc_enter_ix
	push	af
;e4vm_boolean.c:84: Console_WriteStrLn((CHAR*)"xor", 4);
	ld	hl, #___str_7
	call	_Console_WriteStr_C_COMPACT
	call	_Console_WriteLn_COMPACT
;e4vm_boolean.c:85: (*v)->ds[(*v)->ds_p - 2] = e4vm_boolean_BitwiseXOR((*v)->ds[(*v)->ds_p - 2], (*v)->ds[(*v)->ds_p - 1]);
	ld	a, 4 (ix)
	ld	-2 (ix), a
	ld	a, 5 (ix)
	ld	-1 (ix), a
	pop	hl
	push	hl
	ld	c, (hl)
	inc	hl
	ld	b, (hl)
	ld	hl, #0x0044
	add	hl, bc
	ex	de, hl
	ld	l, c
	ld	h, b
	ld	bc, #0x0086
	add	hl, bc
	ld	l, (hl)
	ld	a, l
	dec	a
	dec	a
	add	a, a
	add	a, e
	ld	c, a
	ld	a, #0x00
	adc	a, d
	ld	b, a
	dec	l
	sla	l
	ld	h, #0x00
	add	hl, de
	ld	e, (hl)
	inc	hl
	ld	d, (hl)
	ld	l, c
	ld	h, b
	ld	a, (hl)
	inc	hl
	ld	h, (hl)
	ld	l, a
	ld	a, e
	xor	a, l
	ld	e, a
	ld	a, d
	xor	a, h
	ld	d, a
	ld	a, e
	ld	(bc), a
	inc	bc
	ld	a, d
	ld	(bc), a
;e4vm_boolean.c:86: (*v)->ds_p = (*v)->ds_p - 1;
	pop	hl
	push	hl
	ld	c, (hl)
	inc	hl
	ld	b, (hl)
	ld	hl, #0x0086
	add	hl, bc
	ld	c, (hl)
	inc	hl
	ld	b, (hl)
	dec	hl
	dec	bc
	ld	(hl), c
	inc	hl
	ld	(hl), b
;e4vm_boolean.c:87: }
	pop	af
	pop	ix
	ret
___str_7:
	.ascii "xor"
	.db 0x00
;e4vm_boolean.c:91: export void *e4vm_boolean__init (void)
;	---------------------------------
; Function e4vm_boolean__init
; ---------------------------------
_e4vm_boolean__init::
;e4vm_boolean.c:93: __DEFMOD;
	LD	HL,#. 
	LD (HL),#0xC9 
;e4vm_boolean.c:96: __IMPORT(e4vm_utils__init);
;e4vm_boolean.c:100: }
	jp  _e4vm_utils__init
	.area _CODE
	.area _INITIALIZER
	.area _CABS (ABS)
