ASxxxx Linker V03.00 + NoICE + sdld,  page 1.
Hexadecimal  [32-Bits]

Area                                    Addr        Size        Decimal Bytes (Attributes)
--------------------------------        ----        ----        ------- ----- ------------
.  .ABS.                            00000000    00000000 =           0. bytes (ABS,CON)

      Value  Global                              Global Defined In Module
      -----  --------------------------------   ------------------------
     00000000  .__.ABS.                           Console_019
     00000000  _main                           
     00000000  l__CABS                         
     00000000  l__DABS                         
     00000000  l__DATA                         
     00000000  l__GSFINAL                      
     00000000  l__GSINIT                       
     00000000  l__HOME                         
     00000000  l__INITIALIZED                  
     00000000  l__INITIALIZER                  
     00000000  s__CABS                         
     00000000  s__DABS                         
     0000146C  l__CODE                         
     000061A8  s__CODE                         
     0000C350  s__DATA                         
     0000C350  s__GSFINAL                      
     0000C350  s__GSINIT                       
     0000C350  s__HOME                         
     0000C350  s__INITIALIZED                  
     0000C350  s__INITIALIZER                  

ASxxxx Linker V03.00 + NoICE + sdld,  page 2.
Hexadecimal  [32-Bits]

Area                                    Addr        Size        Decimal Bytes (Attributes)
--------------------------------        ----        ----        ------- ----- ------------
_CODE                               000061A8    0000146C =        5228. bytes (REL,CON)

      Value  Global                              Global Defined In Module
      -----  --------------------------------   ------------------------
     0000631A  _e4vm_core_do_nop                  e4vm_core
     0000631F  _e4vm_core_do_list                 e4vm_core
     0000637A  _e4vm_core_do_next                 e4vm_core
     00006444  _e4vm_core_do_exit                 e4vm_core
     00006481  _e4vm_core__init                   e4vm_core
     00006489  _e4vm_core_ext_quit                e4vm_core_ext
     0000648A  _e4vm_core_ext_do_lit              e4vm_core_ext
     000064C2  _e4vm_core_ext_get_here_addr       e4vm_core_ext
     000064E2  _e4vm_core_ext_comma               e4vm_core_ext
     00006522  _e4vm_core_ext_branch              e4vm_core_ext
     00006555  _e4vm_core_ext__init               e4vm_core_ext
     00006560  _e4vm_utils_init                   e4vm_utils
     00006658  _e4vm_utils_vm_stat                e4vm_utils
     00006831  _e4vm_utils_true_const             e4vm_utils
     00006835  _e4vm_utils_false_const            e4vm_utils
     00006839  _e4vm_utils_error                  e4vm_utils
     00006858  _e4vm_utils_stack_ds_push          e4vm_utils
     00006898  _e4vm_utils_stack_rs_push          e4vm_utils
     000068D8  _e4vm_utils_add_op                 e4vm_utils
     00006918  _e4vm_utils__init                  e4vm_utils
     00006923  _e4vm_stack_drop                   e4vm_stack
     0000693E  _e4vm_stack_swap                   e4vm_stack
     000069BA  _e4vm_stack_dup                    e4vm_stack
     00006A01  _e4vm_stack_over                   e4vm_stack
     00006A49  _e4vm_stack_rot                    e4vm_stack
     00006AF9  _e4vm_stack_nrot                   e4vm_stack
     00006BAB  _e4vm_stack__init                  e4vm_stack
     00006BB1  _e4vm_math_minus                   e4vm_math
     00006BFE  _e4vm_math_plus                    e4vm_math
     00006C49  _e4vm_math_multiply                e4vm_math
     00006C9C  _e4vm_math_devide                  e4vm_math
     00006CEF  _e4vm_math_mod                     e4vm_math
     00006D42  _e4vm_math_inc                     e4vm_math
     00006D6C  _e4vm_math_dec                     e4vm_math
     00006D95  _e4vm_math__init                   e4vm_math
     00006D9B  _e4vm_boolean_true                 e4vm_boolean
     00006DDF  _e4vm_boolean_false                e4vm_boolean
     00006E23  _e4vm_boolean_not                  e4vm_boolean
     00006EFC  _e4vm_boolean_invert               e4vm_boolean
     00006F28  _e4vm_boolean_or                   e4vm_boolean
     00006F80  _e4vm_boolean_and                  e4vm_boolean
     00006FE7  _e4vm_boolean_xor                  e4vm_boolean
     00007041  _e4vm_boolean_eql                  e4vm_boolean
     000070C3  _e4vm_boolean_not_eql              e4vm_boolean
     00007145  _e4vm_boolean_less                 e4vm_boolean
     000071CC  _e4vm_boolean_greater              e4vm_boolean
     00007251  _e4vm_boolean_less_eql             e4vm_boolean
     000072D6  _e4vm_boolean_greater_eql          e4vm_boolean
     0000735D  _e4vm_boolean__init                e4vm_boolean
     00007365  _Basic_PAUSE_DI                    Basic_033
ASxxxx Linker V03.00 + NoICE + sdld,  page 3.
Hexadecimal  [32-Bits]

Area                                    Addr        Size        Decimal Bytes (Attributes)
--------------------------------        ----        ----        ------- ----- ------------
_CODE                               000061A8    0000146C =        5228. bytes (REL,CON)

      Value  Global                              Global Defined In Module
      -----  --------------------------------   ------------------------
     0000737D  _SYSTEM_MODS                       SYSTEM_017
     0000740F  __mulint                           
     00007415  __mul16                            
     00007429  _SYSTEM_DIVS                       SYSTEM_014
     000074B8  _Console_WriteStr_C_COMPACT        Console_014
     000074C3  ___sdcc_call_hl                    
     000074C4  _Console_WriteCh_COMPACT           Console_005
     000074CF  _ATTR_ADR_C                        Console_005
     000074F3  _Console_WriteInt_COMPACT          Console_020
     00007508  _e4vm_type__init                   e4vm_type_001
     0000750E  _Console_WriteLn_COMPACT           Console_012
     0000751B  _INC_HBYTE_C                       Console_012
     0000752C  ___sdcc_enter_ix                   
     00007536  __modschar                         
     00007543  __modsint                          
     0000754F  __divsint                          
     00007558  __divschar                         
     0000755F  __div8                             
     00007563  __div_signexte                     
     00007567  __div16                            
     0000758D  __get_remainder                    
     00007597  _SYSTEM_HALT_m1                    SYSTEM_001
     000075A3  __divuint                          
     000075AB  __divuchar                         
     000075B2  __divu8                            
     000075B5  __divu16                           
     000075E4  _Console_WriteUShort_COMPACT       Console_019

ASxxxx Linker V03.00 + NoICE + sdld,  page 4.

Files Linked                              [ module(s) ]

C:\xdev\ZXDev\Lib\crt0.rel                [ crt0 ]
e4vm_core.rel                             [ e4vm_core ]
e4vm_core.rel                             [ e4vm_core ]
e4vm_core_ext.rel                         [ e4vm_core_ext ]
e4vm_utils.rel                            [ e4vm_utils ]
e4vm_stack.rel                            [ e4vm_stack ]
e4vm_math.rel                             [ e4vm_math ]
e4vm_boolean.rel                          [ e4vm_boolean ]


Libraries Linked                          [ object file ]

C:\xdev\ZXDev\Lib/Basic.lib               [ Basic_033.rel ]
C:\xdev\ZXDev\Lib/XDev.lib                [ SYSTEM_017.rel ]
C:\xdev\ZXDev\Lib/z80.lib                 [ mul.rel ]
C:\xdev\ZXDev\Lib/XDev.lib                [ SYSTEM_014.rel ]
C:\xdev\ZXDev\Lib/XDev.lib                [ Console_014.rel ]
C:\xdev\ZXDev\Lib/z80.lib                 [ __sdcc_call_hl.rel ]
C:\xdev\ZXDev\Lib/XDev.lib                [ Console_005.rel ]
C:\xdev\ZXDev\Lib/XDev.lib                [ Console_020.rel ]
C:\xdev\ZXDev\Lib/e4vm_type.lib           [ e4vm_type_001.rel ]
C:\xdev\ZXDev\Lib/XDev.lib                [ Console_012.rel ]
C:\xdev\ZXDev\Lib/z80.lib                 [ crtenter.rel ]
C:\xdev\ZXDev\Lib/z80.lib                 [ modsigned.rel ]
C:\xdev\ZXDev\Lib/z80.lib                 [ divsigned.rel ]
C:\xdev\ZXDev\Lib/XDev.lib                [ SYSTEM_001.rel ]
C:\xdev\ZXDev\Lib/z80.lib                 [ divunsigned.rel ]
C:\xdev\ZXDev\Lib/XDev.lib                [ Console_019.rel ]

ASxxxx Linker V03.00 + NoICE + sdld,  page 5.

User Base Address Definitions

_CODE = 0x61a8
_DATA = 0xc350


?ASlink-Warning-Undefined Global '_main' referenced by module 'crt0'
