                              1 ;--------------------------------------------------------
                              2 ; File Created by SDCC : free open source ANSI-C Compiler
                              3 ; Version 3.9.3 #11378 (MINGW32)
                              4 ;--------------------------------------------------------
                              5 	.module e4vm
                              6 	.optsdcc -mz80
                              7 	
                              8 ;--------------------------------------------------------
                              9 ; Public variables in this module
                             10 ;--------------------------------------------------------
                             11 	.globl _main
                             12 	.globl _e4vm_utils__init
                             13 	.globl _e4vm_utils_init
                             14 	.globl _e4vm_core__init
                             15 	.globl _e4vm_core_do_nop
                             16 	.globl _e4vm_core_do_next
                             17 	.globl _e4vm_core_do_list
                             18 	.globl _e4vm_core_do_exit
                             19 	.globl _Basic_Quit_IM1
                             20 	.globl _Basic_PAUSE_EI
                             21 	.globl _Console_Clear_COMPACT
                             22 	.globl _Console_WriteStr_C_COMPACT
                             23 	.globl _Console_WriteLn_COMPACT
                             24 ;--------------------------------------------------------
                             25 ; special function registers
                             26 ;--------------------------------------------------------
                             27 ;--------------------------------------------------------
                             28 ; ram data
                             29 ;--------------------------------------------------------
                             30 	.area _DATA
   0000                      31 _e4vm_vm_static:
   0000                      32 	.ds 269
   010D                      33 _e4vm_vm:
   010D                      34 	.ds 2
                             35 ;--------------------------------------------------------
                             36 ; ram data
                             37 ;--------------------------------------------------------
                             38 	.area _INITIALIZED
                             39 ;--------------------------------------------------------
                             40 ; absolute external ram data
                             41 ;--------------------------------------------------------
                             42 	.area _DABS (ABS)
                             43 ;--------------------------------------------------------
                             44 ; global & static initialisations
                             45 ;--------------------------------------------------------
                             46 	.area _HOME
                             47 	.area _GSINIT
                             48 	.area _GSFINAL
                             49 	.area _GSINIT
                             50 ;--------------------------------------------------------
                             51 ; Home
                             52 ;--------------------------------------------------------
                             53 	.area _HOME
                             54 	.area _HOME
                             55 ;--------------------------------------------------------
                             56 ; code
                             57 ;--------------------------------------------------------
                             58 	.area _CODE
                             59 ;e4vm.c:27: static void e4vm_stack_ds_push (SHORTINT x)
                             60 ;	---------------------------------
                             61 ; Function e4vm_stack_ds_push
                             62 ; ---------------------------------
   0000                      63 _e4vm_stack_ds_push:
   0000 CDr00r00      [17]   64 	call	___sdcc_enter_ix
                             65 ;e4vm.c:29: e4vm_vm->ds[e4vm_vm->ds_p] = x;
   0003 ED 4Br0Dr01   [20]   66 	ld	bc, (_e4vm_vm)
   0007 21 44 00      [10]   67 	ld	hl, #0x0044
   000A 09            [11]   68 	add	hl, bc
   000B EB            [ 4]   69 	ex	de, hl
   000C 69            [ 4]   70 	ld	l, c
   000D 60            [ 4]   71 	ld	h, b
   000E 01 86 00      [10]   72 	ld	bc, #0x0086
   0011 09            [11]   73 	add	hl, bc
   0012 7E            [ 7]   74 	ld	a, (hl)
   0013 23            [ 6]   75 	inc	hl
   0014 66            [ 7]   76 	ld	h, (hl)
   0015 6F            [ 4]   77 	ld	l, a
   0016 29            [11]   78 	add	hl, hl
   0017 19            [11]   79 	add	hl, de
   0018 EB            [ 4]   80 	ex	de, hl
   0019 DD 7E 04      [19]   81 	ld	a, 4 (ix)
   001C 12            [ 7]   82 	ld	(de), a
   001D 13            [ 6]   83 	inc	de
   001E DD 7E 05      [19]   84 	ld	a, 5 (ix)
   0021 12            [ 7]   85 	ld	(de), a
   0022 ED 4Br0Dr01   [20]   86 	ld	bc, (_e4vm_vm)
   0026 21 86 00      [10]   87 	ld	hl, #0x0086
   0029 09            [11]   88 	add	hl, bc
                             89 ;e4vm.c:30: e4vm_vm->ds_p = e4vm_vm->ds_p + 1;
   002A 4E            [ 7]   90 	ld	c, (hl)
   002B 23            [ 6]   91 	inc	hl
   002C 46            [ 7]   92 	ld	b, (hl)
   002D 2B            [ 6]   93 	dec	hl
   002E 03            [ 6]   94 	inc	bc
   002F 78            [ 4]   95 	ld	a, b
   0030 71            [ 7]   96 	ld	(hl), c
   0031 23            [ 6]   97 	inc	hl
   0032 77            [ 7]   98 	ld	(hl), a
                             99 ;e4vm.c:31: }
   0033 DD E1         [14]  100 	pop	ix
   0035 C9            [10]  101 	ret
                            102 ;e4vm.c:33: static void e4vm_stack_rs_push (SHORTINT x)
                            103 ;	---------------------------------
                            104 ; Function e4vm_stack_rs_push
                            105 ; ---------------------------------
   0036                     106 _e4vm_stack_rs_push:
   0036 CDr00r00      [17]  107 	call	___sdcc_enter_ix
                            108 ;e4vm.c:35: e4vm_vm->rs[e4vm_vm->rs_p] = x;
   0039 ED 4Br0Dr01   [20]  109 	ld	bc, (_e4vm_vm)
   003D 21 04 00      [10]  110 	ld	hl, #0x0004
   0040 09            [11]  111 	add	hl, bc
   0041 EB            [ 4]  112 	ex	de, hl
   0042 69            [ 4]  113 	ld	l, c
   0043 60            [ 4]  114 	ld	h, b
   0044 01 84 00      [10]  115 	ld	bc, #0x0084
   0047 09            [11]  116 	add	hl, bc
   0048 7E            [ 7]  117 	ld	a, (hl)
   0049 23            [ 6]  118 	inc	hl
   004A 66            [ 7]  119 	ld	h, (hl)
   004B 6F            [ 4]  120 	ld	l, a
   004C 29            [11]  121 	add	hl, hl
   004D 19            [11]  122 	add	hl, de
   004E EB            [ 4]  123 	ex	de, hl
   004F DD 7E 04      [19]  124 	ld	a, 4 (ix)
   0052 12            [ 7]  125 	ld	(de), a
   0053 13            [ 6]  126 	inc	de
   0054 DD 7E 05      [19]  127 	ld	a, 5 (ix)
   0057 12            [ 7]  128 	ld	(de), a
   0058 ED 4Br0Dr01   [20]  129 	ld	bc, (_e4vm_vm)
   005C 21 84 00      [10]  130 	ld	hl, #0x0084
   005F 09            [11]  131 	add	hl, bc
                            132 ;e4vm.c:36: e4vm_vm->rs_p = e4vm_vm->rs_p + 1;
   0060 4E            [ 7]  133 	ld	c, (hl)
   0061 23            [ 6]  134 	inc	hl
   0062 46            [ 7]  135 	ld	b, (hl)
   0063 2B            [ 6]  136 	dec	hl
   0064 03            [ 6]  137 	inc	bc
   0065 78            [ 4]  138 	ld	a, b
   0066 71            [ 7]  139 	ld	(hl), c
   0067 23            [ 6]  140 	inc	hl
   0068 77            [ 7]  141 	ld	(hl), a
                            142 ;e4vm.c:37: }
   0069 DD E1         [14]  143 	pop	ix
   006B C9            [10]  144 	ret
                            145 ;e4vm.c:39: static void e4vm_do_lit (e4vm_type_x4thPtr *v)
                            146 ;	---------------------------------
                            147 ; Function e4vm_do_lit
                            148 ; ---------------------------------
   006C                     149 _e4vm_do_lit:
   006C CDr00r00      [17]  150 	call	___sdcc_enter_ix
                            151 ;e4vm.c:41: (*v)->ip = (*v)->ip + 1;
   006F DD 4E 04      [19]  152 	ld	c, 4 (ix)
   0072 DD 46 05      [19]  153 	ld	b, 5 (ix)
   0075 69            [ 4]  154 	ld	l, c
   0076 60            [ 4]  155 	ld	h, b
   0077 7E            [ 7]  156 	ld	a, (hl)
   0078 23            [ 6]  157 	inc	hl
   0079 66            [ 7]  158 	ld	h, (hl)
   007A 6F            [ 4]  159 	ld	l, a
   007B 5E            [ 7]  160 	ld	e, (hl)
   007C 23            [ 6]  161 	inc	hl
   007D 56            [ 7]  162 	ld	d, (hl)
   007E 2B            [ 6]  163 	dec	hl
   007F 13            [ 6]  164 	inc	de
   0080 7A            [ 4]  165 	ld	a, d
   0081 73            [ 7]  166 	ld	(hl), e
   0082 23            [ 6]  167 	inc	hl
   0083 77            [ 7]  168 	ld	(hl), a
                            169 ;e4vm.c:42: e4vm_stack_ds_push((*v)->mem[(*v)->ip]);
   0084 69            [ 4]  170 	ld	l, c
   0085 60            [ 4]  171 	ld	h, b
   0086 4E            [ 7]  172 	ld	c, (hl)
   0087 23            [ 6]  173 	inc	hl
   0088 46            [ 7]  174 	ld	b, (hl)
   0089 21 8A 00      [10]  175 	ld	hl, #0x008a
   008C 09            [11]  176 	add	hl, bc
   008D EB            [ 4]  177 	ex	de, hl
   008E 69            [ 4]  178 	ld	l, c
   008F 60            [ 4]  179 	ld	h, b
   0090 7E            [ 7]  180 	ld	a, (hl)
   0091 23            [ 6]  181 	inc	hl
   0092 66            [ 7]  182 	ld	h, (hl)
   0093 6F            [ 4]  183 	ld	l, a
   0094 29            [11]  184 	add	hl, hl
   0095 19            [11]  185 	add	hl, de
   0096 4E            [ 7]  186 	ld	c, (hl)
   0097 23            [ 6]  187 	inc	hl
   0098 46            [ 7]  188 	ld	b, (hl)
   0099 C5            [11]  189 	push	bc
   009A CDr00r00      [17]  190 	call	_e4vm_stack_ds_push
   009D F1            [10]  191 	pop	af
                            192 ;e4vm.c:43: }
   009E DD E1         [14]  193 	pop	ix
   00A0 C9            [10]  194 	ret
                            195 ;e4vm.c:45: static void e4vm_do_hello (e4vm_type_x4thPtr *v)
                            196 ;	---------------------------------
                            197 ; Function e4vm_do_hello
                            198 ; ---------------------------------
   00A1                     199 _e4vm_do_hello:
   00A1 CDr00r00      [17]  200 	call	___sdcc_enter_ix
                            201 ;e4vm.c:47: Console_WriteStrLn((CHAR*)"hello!", 7);
   00A4 21rAFr00      [10]  202 	ld	hl, #___str_0
   00A7 CDr00r00      [17]  203 	call	_Console_WriteStr_C_COMPACT
                            204 ;e4vm.c:48: }
   00AA DD E1         [14]  205 	pop	ix
   00AC C3r00r00      [10]  206 	jp	_Console_WriteLn_COMPACT
   00AF                     207 ___str_0:
   00AF 68 65 6C 6C 6F 21   208 	.ascii "hello!"
   00B5 00                  209 	.db 0x00
                            210 ;e4vm.c:50: static void e4vm_test1 (e4vm_type_x4thPtr *v)
                            211 ;	---------------------------------
                            212 ; Function e4vm_test1
                            213 ; ---------------------------------
   00B6                     214 _e4vm_test1:
   00B6 CDr00r00      [17]  215 	call	___sdcc_enter_ix
                            216 ;e4vm.c:52: e4vm_utils_init(v);
   00B9 DD 6E 04      [19]  217 	ld	l, 4 (ix)
   00BC DD 66 05      [19]  218 	ld	h, 5 (ix)
   00BF E5            [11]  219 	push	hl
   00C0 CDr00r00      [17]  220 	call	_e4vm_utils_init
   00C3 F1            [10]  221 	pop	af
                            222 ;e4vm.c:53: (*v)->core[0] = e4vm_core_do_nop;
   00C4 DD 4E 04      [19]  223 	ld	c, 4 (ix)
   00C7 DD 46 05      [19]  224 	ld	b, 5 (ix)
   00CA 69            [ 4]  225 	ld	l, c
   00CB 60            [ 4]  226 	ld	h, b
   00CC 5E            [ 7]  227 	ld	e, (hl)
   00CD 23            [ 6]  228 	inc	hl
   00CE 56            [ 7]  229 	ld	d, (hl)
   00CF 21 CD 00      [10]  230 	ld	hl, #0x00cd
   00D2 19            [11]  231 	add	hl, de
   00D3 EB            [ 4]  232 	ex	de, hl
   00D4 3Er00         [ 7]  233 	ld	a, #<(_e4vm_core_do_nop)
   00D6 12            [ 7]  234 	ld	(de), a
   00D7 13            [ 6]  235 	inc	de
   00D8 3Es00         [ 7]  236 	ld	a, #>(_e4vm_core_do_nop)
   00DA 12            [ 7]  237 	ld	(de), a
                            238 ;e4vm.c:54: (*v)->core[1] = e4vm_core_do_next;
   00DB 69            [ 4]  239 	ld	l, c
   00DC 60            [ 4]  240 	ld	h, b
   00DD 5E            [ 7]  241 	ld	e, (hl)
   00DE 23            [ 6]  242 	inc	hl
   00DF 56            [ 7]  243 	ld	d, (hl)
   00E0 21 CF 00      [10]  244 	ld	hl, #0x00cf
   00E3 19            [11]  245 	add	hl, de
   00E4 EB            [ 4]  246 	ex	de, hl
   00E5 3Er00         [ 7]  247 	ld	a, #<(_e4vm_core_do_next)
   00E7 12            [ 7]  248 	ld	(de), a
   00E8 13            [ 6]  249 	inc	de
   00E9 3Es00         [ 7]  250 	ld	a, #>(_e4vm_core_do_next)
   00EB 12            [ 7]  251 	ld	(de), a
                            252 ;e4vm.c:55: (*v)->core[2] = e4vm_core_do_list;
   00EC 69            [ 4]  253 	ld	l, c
   00ED 60            [ 4]  254 	ld	h, b
   00EE 5E            [ 7]  255 	ld	e, (hl)
   00EF 23            [ 6]  256 	inc	hl
   00F0 56            [ 7]  257 	ld	d, (hl)
   00F1 21 D1 00      [10]  258 	ld	hl, #0x00d1
   00F4 19            [11]  259 	add	hl, de
   00F5 EB            [ 4]  260 	ex	de, hl
   00F6 3Er00         [ 7]  261 	ld	a, #<(_e4vm_core_do_list)
   00F8 12            [ 7]  262 	ld	(de), a
   00F9 13            [ 6]  263 	inc	de
   00FA 3Es00         [ 7]  264 	ld	a, #>(_e4vm_core_do_list)
   00FC 12            [ 7]  265 	ld	(de), a
                            266 ;e4vm.c:56: (*v)->core[3] = e4vm_core_do_exit;
   00FD 69            [ 4]  267 	ld	l, c
   00FE 60            [ 4]  268 	ld	h, b
   00FF 5E            [ 7]  269 	ld	e, (hl)
   0100 23            [ 6]  270 	inc	hl
   0101 56            [ 7]  271 	ld	d, (hl)
   0102 21 D3 00      [10]  272 	ld	hl, #0x00d3
   0105 19            [11]  273 	add	hl, de
   0106 EB            [ 4]  274 	ex	de, hl
   0107 3Er00         [ 7]  275 	ld	a, #<(_e4vm_core_do_exit)
   0109 12            [ 7]  276 	ld	(de), a
   010A 13            [ 6]  277 	inc	de
   010B 3Es00         [ 7]  278 	ld	a, #>(_e4vm_core_do_exit)
   010D 12            [ 7]  279 	ld	(de), a
                            280 ;e4vm.c:57: (*v)->core[4] = e4vm_do_hello;
   010E 69            [ 4]  281 	ld	l, c
   010F 60            [ 4]  282 	ld	h, b
   0110 5E            [ 7]  283 	ld	e, (hl)
   0111 23            [ 6]  284 	inc	hl
   0112 56            [ 7]  285 	ld	d, (hl)
   0113 21 D5 00      [10]  286 	ld	hl, #0x00d5
   0116 19            [11]  287 	add	hl, de
   0117 EB            [ 4]  288 	ex	de, hl
   0118 3ErA1         [ 7]  289 	ld	a, #<(_e4vm_do_hello)
   011A 12            [ 7]  290 	ld	(de), a
   011B 13            [ 6]  291 	inc	de
   011C 3Es00         [ 7]  292 	ld	a, #>(_e4vm_do_hello)
   011E 12            [ 7]  293 	ld	(de), a
                            294 ;e4vm.c:58: (*v)->mem[0] = 0;
   011F 69            [ 4]  295 	ld	l, c
   0120 60            [ 4]  296 	ld	h, b
   0121 5E            [ 7]  297 	ld	e, (hl)
   0122 23            [ 6]  298 	inc	hl
   0123 56            [ 7]  299 	ld	d, (hl)
   0124 21 8A 00      [10]  300 	ld	hl, #0x008a
   0127 19            [11]  301 	add	hl, de
   0128 AF            [ 4]  302 	xor	a, a
   0129 77            [ 7]  303 	ld	(hl), a
   012A 23            [ 6]  304 	inc	hl
   012B 77            [ 7]  305 	ld	(hl), a
                            306 ;e4vm.c:59: (*v)->mem[1] = 1;
   012C 69            [ 4]  307 	ld	l, c
   012D 60            [ 4]  308 	ld	h, b
   012E 5E            [ 7]  309 	ld	e, (hl)
   012F 23            [ 6]  310 	inc	hl
   0130 56            [ 7]  311 	ld	d, (hl)
   0131 21 8C 00      [10]  312 	ld	hl, #0x008c
   0134 19            [11]  313 	add	hl, de
   0135 36 01         [10]  314 	ld	(hl), #0x01
   0137 23            [ 6]  315 	inc	hl
   0138 36 00         [10]  316 	ld	(hl), #0x00
                            317 ;e4vm.c:60: (*v)->mem[2] = 2;
   013A 69            [ 4]  318 	ld	l, c
   013B 60            [ 4]  319 	ld	h, b
   013C 5E            [ 7]  320 	ld	e, (hl)
   013D 23            [ 6]  321 	inc	hl
   013E 56            [ 7]  322 	ld	d, (hl)
   013F 21 8E 00      [10]  323 	ld	hl, #0x008e
   0142 19            [11]  324 	add	hl, de
   0143 36 02         [10]  325 	ld	(hl), #0x02
   0145 23            [ 6]  326 	inc	hl
   0146 36 00         [10]  327 	ld	(hl), #0x00
                            328 ;e4vm.c:61: (*v)->mem[3] = 3;
   0148 69            [ 4]  329 	ld	l, c
   0149 60            [ 4]  330 	ld	h, b
   014A 5E            [ 7]  331 	ld	e, (hl)
   014B 23            [ 6]  332 	inc	hl
   014C 56            [ 7]  333 	ld	d, (hl)
   014D 21 90 00      [10]  334 	ld	hl, #0x0090
   0150 19            [11]  335 	add	hl, de
   0151 36 03         [10]  336 	ld	(hl), #0x03
   0153 23            [ 6]  337 	inc	hl
   0154 36 00         [10]  338 	ld	(hl), #0x00
                            339 ;e4vm.c:62: (*v)->mem[4] = 4;
   0156 69            [ 4]  340 	ld	l, c
   0157 60            [ 4]  341 	ld	h, b
   0158 5E            [ 7]  342 	ld	e, (hl)
   0159 23            [ 6]  343 	inc	hl
   015A 56            [ 7]  344 	ld	d, (hl)
   015B 21 92 00      [10]  345 	ld	hl, #0x0092
   015E 19            [11]  346 	add	hl, de
   015F 36 04         [10]  347 	ld	(hl), #0x04
   0161 23            [ 6]  348 	inc	hl
   0162 36 00         [10]  349 	ld	(hl), #0x00
                            350 ;e4vm.c:63: (*v)->wp = 4;
   0164 69            [ 4]  351 	ld	l, c
   0165 60            [ 4]  352 	ld	h, b
   0166 5E            [ 7]  353 	ld	e, (hl)
   0167 23            [ 6]  354 	inc	hl
   0168 56            [ 7]  355 	ld	d, (hl)
   0169 13            [ 6]  356 	inc	de
   016A 13            [ 6]  357 	inc	de
   016B 62            [ 4]  358 	ld	h, d
   016C 6B            [ 4]  359 	ld	l, e
   016D 36 04         [10]  360 	ld	(hl), #0x04
   016F 23            [ 6]  361 	inc	hl
   0170 36 00         [10]  362 	ld	(hl), #0x00
                            363 ;e4vm.c:64: (*v)->mem[5] = 2;
   0172 69            [ 4]  364 	ld	l, c
   0173 60            [ 4]  365 	ld	h, b
   0174 5E            [ 7]  366 	ld	e, (hl)
   0175 23            [ 6]  367 	inc	hl
   0176 56            [ 7]  368 	ld	d, (hl)
   0177 21 94 00      [10]  369 	ld	hl, #0x0094
   017A 19            [11]  370 	add	hl, de
   017B 36 02         [10]  371 	ld	(hl), #0x02
   017D 23            [ 6]  372 	inc	hl
   017E 36 00         [10]  373 	ld	(hl), #0x00
                            374 ;e4vm.c:65: (*v)->mem[6] = 0;
   0180 69            [ 4]  375 	ld	l, c
   0181 60            [ 4]  376 	ld	h, b
   0182 5E            [ 7]  377 	ld	e, (hl)
   0183 23            [ 6]  378 	inc	hl
   0184 56            [ 7]  379 	ld	d, (hl)
   0185 21 96 00      [10]  380 	ld	hl, #0x0096
   0188 19            [11]  381 	add	hl, de
   0189 AF            [ 4]  382 	xor	a, a
   018A 77            [ 7]  383 	ld	(hl), a
   018B 23            [ 6]  384 	inc	hl
   018C 77            [ 7]  385 	ld	(hl), a
                            386 ;e4vm.c:66: (*v)->mem[7] = 4;
   018D 69            [ 4]  387 	ld	l, c
   018E 60            [ 4]  388 	ld	h, b
   018F 5E            [ 7]  389 	ld	e, (hl)
   0190 23            [ 6]  390 	inc	hl
   0191 56            [ 7]  391 	ld	d, (hl)
   0192 21 98 00      [10]  392 	ld	hl, #0x0098
   0195 19            [11]  393 	add	hl, de
   0196 36 04         [10]  394 	ld	(hl), #0x04
   0198 23            [ 6]  395 	inc	hl
   0199 36 00         [10]  396 	ld	(hl), #0x00
                            397 ;e4vm.c:67: (*v)->mem[8] = 0;
   019B 69            [ 4]  398 	ld	l, c
   019C 60            [ 4]  399 	ld	h, b
   019D 5E            [ 7]  400 	ld	e, (hl)
   019E 23            [ 6]  401 	inc	hl
   019F 56            [ 7]  402 	ld	d, (hl)
   01A0 21 9A 00      [10]  403 	ld	hl, #0x009a
   01A3 19            [11]  404 	add	hl, de
   01A4 AF            [ 4]  405 	xor	a, a
   01A5 77            [ 7]  406 	ld	(hl), a
   01A6 23            [ 6]  407 	inc	hl
   01A7 77            [ 7]  408 	ld	(hl), a
                            409 ;e4vm.c:68: (*v)->mem[9] = 3;
   01A8 69            [ 4]  410 	ld	l, c
   01A9 60            [ 4]  411 	ld	h, b
   01AA 5E            [ 7]  412 	ld	e, (hl)
   01AB 23            [ 6]  413 	inc	hl
   01AC 56            [ 7]  414 	ld	d, (hl)
   01AD 21 9C 00      [10]  415 	ld	hl, #0x009c
   01B0 19            [11]  416 	add	hl, de
   01B1 36 03         [10]  417 	ld	(hl), #0x03
   01B3 23            [ 6]  418 	inc	hl
   01B4 36 00         [10]  419 	ld	(hl), #0x00
                            420 ;e4vm.c:69: e4vm_core_do_list(v);
   01B6 C5            [11]  421 	push	bc
   01B7 CDr00r00      [17]  422 	call	_e4vm_core_do_list
   01BA F1            [10]  423 	pop	af
                            424 ;e4vm.c:70: e4vm_core_do_next(v);
   01BB DD 6E 04      [19]  425 	ld	l, 4 (ix)
   01BE DD 66 05      [19]  426 	ld	h, 5 (ix)
   01C1 E5            [11]  427 	push	hl
   01C2 CDr00r00      [17]  428 	call	_e4vm_core_do_next
   01C5 F1            [10]  429 	pop	af
                            430 ;e4vm.c:71: }
   01C6 DD E1         [14]  431 	pop	ix
   01C8 C9            [10]  432 	ret
                            433 ;e4vm.c:73: static void e4vm_test2 (e4vm_type_x4thPtr *v)
                            434 ;	---------------------------------
                            435 ; Function e4vm_test2
                            436 ; ---------------------------------
   01C9                     437 _e4vm_test2:
   01C9 CDr00r00      [17]  438 	call	___sdcc_enter_ix
                            439 ;e4vm.c:75: e4vm_utils_init(v);
   01CC DD 6E 04      [19]  440 	ld	l, 4 (ix)
   01CF DD 66 05      [19]  441 	ld	h, 5 (ix)
   01D2 E5            [11]  442 	push	hl
   01D3 CDr00r00      [17]  443 	call	_e4vm_utils_init
   01D6 F1            [10]  444 	pop	af
                            445 ;e4vm.c:76: (*v)->core[0] = e4vm_core_do_nop;
   01D7 DD 4E 04      [19]  446 	ld	c, 4 (ix)
   01DA DD 46 05      [19]  447 	ld	b, 5 (ix)
   01DD 69            [ 4]  448 	ld	l, c
   01DE 60            [ 4]  449 	ld	h, b
   01DF 5E            [ 7]  450 	ld	e, (hl)
   01E0 23            [ 6]  451 	inc	hl
   01E1 56            [ 7]  452 	ld	d, (hl)
   01E2 21 CD 00      [10]  453 	ld	hl, #0x00cd
   01E5 19            [11]  454 	add	hl, de
   01E6 EB            [ 4]  455 	ex	de, hl
   01E7 3Er00         [ 7]  456 	ld	a, #<(_e4vm_core_do_nop)
   01E9 12            [ 7]  457 	ld	(de), a
   01EA 13            [ 6]  458 	inc	de
   01EB 3Es00         [ 7]  459 	ld	a, #>(_e4vm_core_do_nop)
   01ED 12            [ 7]  460 	ld	(de), a
                            461 ;e4vm.c:77: (*v)->core[1] = e4vm_core_do_next;
   01EE 69            [ 4]  462 	ld	l, c
   01EF 60            [ 4]  463 	ld	h, b
   01F0 5E            [ 7]  464 	ld	e, (hl)
   01F1 23            [ 6]  465 	inc	hl
   01F2 56            [ 7]  466 	ld	d, (hl)
   01F3 21 CF 00      [10]  467 	ld	hl, #0x00cf
   01F6 19            [11]  468 	add	hl, de
   01F7 EB            [ 4]  469 	ex	de, hl
   01F8 3Er00         [ 7]  470 	ld	a, #<(_e4vm_core_do_next)
   01FA 12            [ 7]  471 	ld	(de), a
   01FB 13            [ 6]  472 	inc	de
   01FC 3Es00         [ 7]  473 	ld	a, #>(_e4vm_core_do_next)
   01FE 12            [ 7]  474 	ld	(de), a
                            475 ;e4vm.c:78: (*v)->core[2] = e4vm_core_do_list;
   01FF 69            [ 4]  476 	ld	l, c
   0200 60            [ 4]  477 	ld	h, b
   0201 5E            [ 7]  478 	ld	e, (hl)
   0202 23            [ 6]  479 	inc	hl
   0203 56            [ 7]  480 	ld	d, (hl)
   0204 21 D1 00      [10]  481 	ld	hl, #0x00d1
   0207 19            [11]  482 	add	hl, de
   0208 EB            [ 4]  483 	ex	de, hl
   0209 3Er00         [ 7]  484 	ld	a, #<(_e4vm_core_do_list)
   020B 12            [ 7]  485 	ld	(de), a
   020C 13            [ 6]  486 	inc	de
   020D 3Es00         [ 7]  487 	ld	a, #>(_e4vm_core_do_list)
   020F 12            [ 7]  488 	ld	(de), a
                            489 ;e4vm.c:79: (*v)->core[3] = e4vm_core_do_exit;
   0210 69            [ 4]  490 	ld	l, c
   0211 60            [ 4]  491 	ld	h, b
   0212 5E            [ 7]  492 	ld	e, (hl)
   0213 23            [ 6]  493 	inc	hl
   0214 56            [ 7]  494 	ld	d, (hl)
   0215 21 D3 00      [10]  495 	ld	hl, #0x00d3
   0218 19            [11]  496 	add	hl, de
   0219 EB            [ 4]  497 	ex	de, hl
   021A 3Er00         [ 7]  498 	ld	a, #<(_e4vm_core_do_exit)
   021C 12            [ 7]  499 	ld	(de), a
   021D 13            [ 6]  500 	inc	de
   021E 3Es00         [ 7]  501 	ld	a, #>(_e4vm_core_do_exit)
   0220 12            [ 7]  502 	ld	(de), a
                            503 ;e4vm.c:80: (*v)->core[4] = e4vm_do_hello;
   0221 69            [ 4]  504 	ld	l, c
   0222 60            [ 4]  505 	ld	h, b
   0223 5E            [ 7]  506 	ld	e, (hl)
   0224 23            [ 6]  507 	inc	hl
   0225 56            [ 7]  508 	ld	d, (hl)
   0226 21 D5 00      [10]  509 	ld	hl, #0x00d5
   0229 19            [11]  510 	add	hl, de
   022A EB            [ 4]  511 	ex	de, hl
   022B 3ErA1         [ 7]  512 	ld	a, #<(_e4vm_do_hello)
   022D 12            [ 7]  513 	ld	(de), a
   022E 13            [ 6]  514 	inc	de
   022F 3Es00         [ 7]  515 	ld	a, #>(_e4vm_do_hello)
   0231 12            [ 7]  516 	ld	(de), a
                            517 ;e4vm.c:81: (*v)->mem[0] = 0;
   0232 69            [ 4]  518 	ld	l, c
   0233 60            [ 4]  519 	ld	h, b
   0234 5E            [ 7]  520 	ld	e, (hl)
   0235 23            [ 6]  521 	inc	hl
   0236 56            [ 7]  522 	ld	d, (hl)
   0237 21 8A 00      [10]  523 	ld	hl, #0x008a
   023A 19            [11]  524 	add	hl, de
   023B AF            [ 4]  525 	xor	a, a
   023C 77            [ 7]  526 	ld	(hl), a
   023D 23            [ 6]  527 	inc	hl
   023E 77            [ 7]  528 	ld	(hl), a
                            529 ;e4vm.c:82: (*v)->mem[1] = 1;
   023F 69            [ 4]  530 	ld	l, c
   0240 60            [ 4]  531 	ld	h, b
   0241 5E            [ 7]  532 	ld	e, (hl)
   0242 23            [ 6]  533 	inc	hl
   0243 56            [ 7]  534 	ld	d, (hl)
   0244 21 8C 00      [10]  535 	ld	hl, #0x008c
   0247 19            [11]  536 	add	hl, de
   0248 36 01         [10]  537 	ld	(hl), #0x01
   024A 23            [ 6]  538 	inc	hl
   024B 36 00         [10]  539 	ld	(hl), #0x00
                            540 ;e4vm.c:83: (*v)->mem[2] = 2;
   024D 69            [ 4]  541 	ld	l, c
   024E 60            [ 4]  542 	ld	h, b
   024F 5E            [ 7]  543 	ld	e, (hl)
   0250 23            [ 6]  544 	inc	hl
   0251 56            [ 7]  545 	ld	d, (hl)
   0252 21 8E 00      [10]  546 	ld	hl, #0x008e
   0255 19            [11]  547 	add	hl, de
   0256 36 02         [10]  548 	ld	(hl), #0x02
   0258 23            [ 6]  549 	inc	hl
   0259 36 00         [10]  550 	ld	(hl), #0x00
                            551 ;e4vm.c:84: (*v)->mem[3] = 3;
   025B 69            [ 4]  552 	ld	l, c
   025C 60            [ 4]  553 	ld	h, b
   025D 5E            [ 7]  554 	ld	e, (hl)
   025E 23            [ 6]  555 	inc	hl
   025F 56            [ 7]  556 	ld	d, (hl)
   0260 21 90 00      [10]  557 	ld	hl, #0x0090
   0263 19            [11]  558 	add	hl, de
   0264 36 03         [10]  559 	ld	(hl), #0x03
   0266 23            [ 6]  560 	inc	hl
   0267 36 00         [10]  561 	ld	(hl), #0x00
                            562 ;e4vm.c:85: (*v)->mem[4] = 4;
   0269 69            [ 4]  563 	ld	l, c
   026A 60            [ 4]  564 	ld	h, b
   026B 5E            [ 7]  565 	ld	e, (hl)
   026C 23            [ 6]  566 	inc	hl
   026D 56            [ 7]  567 	ld	d, (hl)
   026E 21 92 00      [10]  568 	ld	hl, #0x0092
   0271 19            [11]  569 	add	hl, de
   0272 36 04         [10]  570 	ld	(hl), #0x04
   0274 23            [ 6]  571 	inc	hl
   0275 36 00         [10]  572 	ld	(hl), #0x00
                            573 ;e4vm.c:86: (*v)->wp = 7;
   0277 69            [ 4]  574 	ld	l, c
   0278 60            [ 4]  575 	ld	h, b
   0279 5E            [ 7]  576 	ld	e, (hl)
   027A 23            [ 6]  577 	inc	hl
   027B 56            [ 7]  578 	ld	d, (hl)
   027C 13            [ 6]  579 	inc	de
   027D 13            [ 6]  580 	inc	de
   027E 62            [ 4]  581 	ld	h, d
   027F 6B            [ 4]  582 	ld	l, e
   0280 36 07         [10]  583 	ld	(hl), #0x07
   0282 23            [ 6]  584 	inc	hl
   0283 36 00         [10]  585 	ld	(hl), #0x00
                            586 ;e4vm.c:87: (*v)->mem[5] = 2;
   0285 69            [ 4]  587 	ld	l, c
   0286 60            [ 4]  588 	ld	h, b
   0287 5E            [ 7]  589 	ld	e, (hl)
   0288 23            [ 6]  590 	inc	hl
   0289 56            [ 7]  591 	ld	d, (hl)
   028A 21 94 00      [10]  592 	ld	hl, #0x0094
   028D 19            [11]  593 	add	hl, de
   028E 36 02         [10]  594 	ld	(hl), #0x02
   0290 23            [ 6]  595 	inc	hl
   0291 36 00         [10]  596 	ld	(hl), #0x00
                            597 ;e4vm.c:88: (*v)->mem[6] = 4;
   0293 69            [ 4]  598 	ld	l, c
   0294 60            [ 4]  599 	ld	h, b
   0295 5E            [ 7]  600 	ld	e, (hl)
   0296 23            [ 6]  601 	inc	hl
   0297 56            [ 7]  602 	ld	d, (hl)
   0298 21 96 00      [10]  603 	ld	hl, #0x0096
   029B 19            [11]  604 	add	hl, de
   029C 36 04         [10]  605 	ld	(hl), #0x04
   029E 23            [ 6]  606 	inc	hl
   029F 36 00         [10]  607 	ld	(hl), #0x00
                            608 ;e4vm.c:89: (*v)->mem[7] = 3;
   02A1 69            [ 4]  609 	ld	l, c
   02A2 60            [ 4]  610 	ld	h, b
   02A3 5E            [ 7]  611 	ld	e, (hl)
   02A4 23            [ 6]  612 	inc	hl
   02A5 56            [ 7]  613 	ld	d, (hl)
   02A6 21 98 00      [10]  614 	ld	hl, #0x0098
   02A9 19            [11]  615 	add	hl, de
   02AA 36 03         [10]  616 	ld	(hl), #0x03
   02AC 23            [ 6]  617 	inc	hl
   02AD 36 00         [10]  618 	ld	(hl), #0x00
                            619 ;e4vm.c:90: (*v)->mem[8] = 2;
   02AF 69            [ 4]  620 	ld	l, c
   02B0 60            [ 4]  621 	ld	h, b
   02B1 5E            [ 7]  622 	ld	e, (hl)
   02B2 23            [ 6]  623 	inc	hl
   02B3 56            [ 7]  624 	ld	d, (hl)
   02B4 21 9A 00      [10]  625 	ld	hl, #0x009a
   02B7 19            [11]  626 	add	hl, de
   02B8 36 02         [10]  627 	ld	(hl), #0x02
   02BA 23            [ 6]  628 	inc	hl
   02BB 36 00         [10]  629 	ld	(hl), #0x00
                            630 ;e4vm.c:91: (*v)->mem[9] = 0;
   02BD 69            [ 4]  631 	ld	l, c
   02BE 60            [ 4]  632 	ld	h, b
   02BF 5E            [ 7]  633 	ld	e, (hl)
   02C0 23            [ 6]  634 	inc	hl
   02C1 56            [ 7]  635 	ld	d, (hl)
   02C2 21 9C 00      [10]  636 	ld	hl, #0x009c
   02C5 19            [11]  637 	add	hl, de
   02C6 AF            [ 4]  638 	xor	a, a
   02C7 77            [ 7]  639 	ld	(hl), a
   02C8 23            [ 6]  640 	inc	hl
   02C9 77            [ 7]  641 	ld	(hl), a
                            642 ;e4vm.c:92: (*v)->mem[10] = 0;
   02CA 69            [ 4]  643 	ld	l, c
   02CB 60            [ 4]  644 	ld	h, b
   02CC 5E            [ 7]  645 	ld	e, (hl)
   02CD 23            [ 6]  646 	inc	hl
   02CE 56            [ 7]  647 	ld	d, (hl)
   02CF 21 9E 00      [10]  648 	ld	hl, #0x009e
   02D2 19            [11]  649 	add	hl, de
   02D3 AF            [ 4]  650 	xor	a, a
   02D4 77            [ 7]  651 	ld	(hl), a
   02D5 23            [ 6]  652 	inc	hl
   02D6 77            [ 7]  653 	ld	(hl), a
                            654 ;e4vm.c:93: (*v)->mem[11] = 4;
   02D7 69            [ 4]  655 	ld	l, c
   02D8 60            [ 4]  656 	ld	h, b
   02D9 5E            [ 7]  657 	ld	e, (hl)
   02DA 23            [ 6]  658 	inc	hl
   02DB 56            [ 7]  659 	ld	d, (hl)
   02DC 21 A0 00      [10]  660 	ld	hl, #0x00a0
   02DF 19            [11]  661 	add	hl, de
   02E0 36 04         [10]  662 	ld	(hl), #0x04
   02E2 23            [ 6]  663 	inc	hl
   02E3 36 00         [10]  664 	ld	(hl), #0x00
                            665 ;e4vm.c:94: (*v)->mem[12] = 0;
   02E5 69            [ 4]  666 	ld	l, c
   02E6 60            [ 4]  667 	ld	h, b
   02E7 5E            [ 7]  668 	ld	e, (hl)
   02E8 23            [ 6]  669 	inc	hl
   02E9 56            [ 7]  670 	ld	d, (hl)
   02EA 21 A2 00      [10]  671 	ld	hl, #0x00a2
   02ED 19            [11]  672 	add	hl, de
   02EE AF            [ 4]  673 	xor	a, a
   02EF 77            [ 7]  674 	ld	(hl), a
   02F0 23            [ 6]  675 	inc	hl
   02F1 77            [ 7]  676 	ld	(hl), a
                            677 ;e4vm.c:95: (*v)->mem[13] = 0;
   02F2 69            [ 4]  678 	ld	l, c
   02F3 60            [ 4]  679 	ld	h, b
   02F4 5E            [ 7]  680 	ld	e, (hl)
   02F5 23            [ 6]  681 	inc	hl
   02F6 56            [ 7]  682 	ld	d, (hl)
   02F7 21 A4 00      [10]  683 	ld	hl, #0x00a4
   02FA 19            [11]  684 	add	hl, de
   02FB AF            [ 4]  685 	xor	a, a
   02FC 77            [ 7]  686 	ld	(hl), a
   02FD 23            [ 6]  687 	inc	hl
   02FE 77            [ 7]  688 	ld	(hl), a
                            689 ;e4vm.c:96: (*v)->mem[14] = 3;
   02FF 69            [ 4]  690 	ld	l, c
   0300 60            [ 4]  691 	ld	h, b
   0301 5E            [ 7]  692 	ld	e, (hl)
   0302 23            [ 6]  693 	inc	hl
   0303 56            [ 7]  694 	ld	d, (hl)
   0304 21 A6 00      [10]  695 	ld	hl, #0x00a6
   0307 19            [11]  696 	add	hl, de
   0308 36 03         [10]  697 	ld	(hl), #0x03
   030A 23            [ 6]  698 	inc	hl
   030B 36 00         [10]  699 	ld	(hl), #0x00
                            700 ;e4vm.c:97: e4vm_core_do_list(v);
   030D C5            [11]  701 	push	bc
   030E CDr00r00      [17]  702 	call	_e4vm_core_do_list
   0311 F1            [10]  703 	pop	af
                            704 ;e4vm.c:98: e4vm_core_do_next(v);
   0312 DD 6E 04      [19]  705 	ld	l, 4 (ix)
   0315 DD 66 05      [19]  706 	ld	h, 5 (ix)
   0318 E5            [11]  707 	push	hl
   0319 CDr00r00      [17]  708 	call	_e4vm_core_do_next
   031C F1            [10]  709 	pop	af
                            710 ;e4vm.c:99: }
   031D DD E1         [14]  711 	pop	ix
   031F C9            [10]  712 	ret
                            713 ;e4vm.c:101: static void e4vm_test_dolit (e4vm_type_x4thPtr *v)
                            714 ;	---------------------------------
                            715 ; Function e4vm_test_dolit
                            716 ; ---------------------------------
   0320                     717 _e4vm_test_dolit:
   0320 CDr00r00      [17]  718 	call	___sdcc_enter_ix
                            719 ;e4vm.c:103: Console_WriteStr((CHAR*)"dolit ", 7);
   0323 21r77r04      [10]  720 	ld	hl, #___str_1
   0326 CDr00r00      [17]  721 	call	_Console_WriteStr_C_COMPACT
                            722 ;e4vm.c:104: e4vm_utils_init(v);
   0329 DD 6E 04      [19]  723 	ld	l, 4 (ix)
   032C DD 66 05      [19]  724 	ld	h, 5 (ix)
   032F E5            [11]  725 	push	hl
   0330 CDr00r00      [17]  726 	call	_e4vm_utils_init
   0333 F1            [10]  727 	pop	af
                            728 ;e4vm.c:105: (*v)->core[0] = e4vm_core_do_nop;
   0334 DD 4E 04      [19]  729 	ld	c, 4 (ix)
   0337 DD 46 05      [19]  730 	ld	b, 5 (ix)
   033A 69            [ 4]  731 	ld	l, c
   033B 60            [ 4]  732 	ld	h, b
   033C 5E            [ 7]  733 	ld	e, (hl)
   033D 23            [ 6]  734 	inc	hl
   033E 56            [ 7]  735 	ld	d, (hl)
   033F 21 CD 00      [10]  736 	ld	hl, #0x00cd
   0342 19            [11]  737 	add	hl, de
   0343 EB            [ 4]  738 	ex	de, hl
   0344 3Er00         [ 7]  739 	ld	a, #<(_e4vm_core_do_nop)
   0346 12            [ 7]  740 	ld	(de), a
   0347 13            [ 6]  741 	inc	de
   0348 3Es00         [ 7]  742 	ld	a, #>(_e4vm_core_do_nop)
   034A 12            [ 7]  743 	ld	(de), a
                            744 ;e4vm.c:106: (*v)->core[1] = e4vm_core_do_next;
   034B 69            [ 4]  745 	ld	l, c
   034C 60            [ 4]  746 	ld	h, b
   034D 5E            [ 7]  747 	ld	e, (hl)
   034E 23            [ 6]  748 	inc	hl
   034F 56            [ 7]  749 	ld	d, (hl)
   0350 21 CF 00      [10]  750 	ld	hl, #0x00cf
   0353 19            [11]  751 	add	hl, de
   0354 EB            [ 4]  752 	ex	de, hl
   0355 3Er00         [ 7]  753 	ld	a, #<(_e4vm_core_do_next)
   0357 12            [ 7]  754 	ld	(de), a
   0358 13            [ 6]  755 	inc	de
   0359 3Es00         [ 7]  756 	ld	a, #>(_e4vm_core_do_next)
   035B 12            [ 7]  757 	ld	(de), a
                            758 ;e4vm.c:107: (*v)->core[2] = e4vm_core_do_list;
   035C 69            [ 4]  759 	ld	l, c
   035D 60            [ 4]  760 	ld	h, b
   035E 5E            [ 7]  761 	ld	e, (hl)
   035F 23            [ 6]  762 	inc	hl
   0360 56            [ 7]  763 	ld	d, (hl)
   0361 21 D1 00      [10]  764 	ld	hl, #0x00d1
   0364 19            [11]  765 	add	hl, de
   0365 EB            [ 4]  766 	ex	de, hl
   0366 3Er00         [ 7]  767 	ld	a, #<(_e4vm_core_do_list)
   0368 12            [ 7]  768 	ld	(de), a
   0369 13            [ 6]  769 	inc	de
   036A 3Es00         [ 7]  770 	ld	a, #>(_e4vm_core_do_list)
   036C 12            [ 7]  771 	ld	(de), a
                            772 ;e4vm.c:108: (*v)->core[3] = e4vm_core_do_exit;
   036D 69            [ 4]  773 	ld	l, c
   036E 60            [ 4]  774 	ld	h, b
   036F 5E            [ 7]  775 	ld	e, (hl)
   0370 23            [ 6]  776 	inc	hl
   0371 56            [ 7]  777 	ld	d, (hl)
   0372 21 D3 00      [10]  778 	ld	hl, #0x00d3
   0375 19            [11]  779 	add	hl, de
   0376 EB            [ 4]  780 	ex	de, hl
   0377 3Er00         [ 7]  781 	ld	a, #<(_e4vm_core_do_exit)
   0379 12            [ 7]  782 	ld	(de), a
   037A 13            [ 6]  783 	inc	de
   037B 3Es00         [ 7]  784 	ld	a, #>(_e4vm_core_do_exit)
   037D 12            [ 7]  785 	ld	(de), a
                            786 ;e4vm.c:109: (*v)->core[4] = e4vm_do_hello;
   037E 69            [ 4]  787 	ld	l, c
   037F 60            [ 4]  788 	ld	h, b
   0380 5E            [ 7]  789 	ld	e, (hl)
   0381 23            [ 6]  790 	inc	hl
   0382 56            [ 7]  791 	ld	d, (hl)
   0383 21 D5 00      [10]  792 	ld	hl, #0x00d5
   0386 19            [11]  793 	add	hl, de
   0387 EB            [ 4]  794 	ex	de, hl
   0388 3ErA1         [ 7]  795 	ld	a, #<(_e4vm_do_hello)
   038A 12            [ 7]  796 	ld	(de), a
   038B 13            [ 6]  797 	inc	de
   038C 3Es00         [ 7]  798 	ld	a, #>(_e4vm_do_hello)
   038E 12            [ 7]  799 	ld	(de), a
                            800 ;e4vm.c:110: (*v)->core[5] = e4vm_do_lit;
   038F 69            [ 4]  801 	ld	l, c
   0390 60            [ 4]  802 	ld	h, b
   0391 5E            [ 7]  803 	ld	e, (hl)
   0392 23            [ 6]  804 	inc	hl
   0393 56            [ 7]  805 	ld	d, (hl)
   0394 21 D7 00      [10]  806 	ld	hl, #0x00d7
   0397 19            [11]  807 	add	hl, de
   0398 EB            [ 4]  808 	ex	de, hl
   0399 3Er6C         [ 7]  809 	ld	a, #<(_e4vm_do_lit)
   039B 12            [ 7]  810 	ld	(de), a
   039C 13            [ 6]  811 	inc	de
   039D 3Es00         [ 7]  812 	ld	a, #>(_e4vm_do_lit)
   039F 12            [ 7]  813 	ld	(de), a
                            814 ;e4vm.c:111: (*v)->mem[0] = 0;
   03A0 69            [ 4]  815 	ld	l, c
   03A1 60            [ 4]  816 	ld	h, b
   03A2 5E            [ 7]  817 	ld	e, (hl)
   03A3 23            [ 6]  818 	inc	hl
   03A4 56            [ 7]  819 	ld	d, (hl)
   03A5 21 8A 00      [10]  820 	ld	hl, #0x008a
   03A8 19            [11]  821 	add	hl, de
   03A9 AF            [ 4]  822 	xor	a, a
   03AA 77            [ 7]  823 	ld	(hl), a
   03AB 23            [ 6]  824 	inc	hl
   03AC 77            [ 7]  825 	ld	(hl), a
                            826 ;e4vm.c:112: (*v)->mem[1] = 1;
   03AD 69            [ 4]  827 	ld	l, c
   03AE 60            [ 4]  828 	ld	h, b
   03AF 5E            [ 7]  829 	ld	e, (hl)
   03B0 23            [ 6]  830 	inc	hl
   03B1 56            [ 7]  831 	ld	d, (hl)
   03B2 21 8C 00      [10]  832 	ld	hl, #0x008c
   03B5 19            [11]  833 	add	hl, de
   03B6 36 01         [10]  834 	ld	(hl), #0x01
   03B8 23            [ 6]  835 	inc	hl
   03B9 36 00         [10]  836 	ld	(hl), #0x00
                            837 ;e4vm.c:113: (*v)->mem[2] = 2;
   03BB 69            [ 4]  838 	ld	l, c
   03BC 60            [ 4]  839 	ld	h, b
   03BD 5E            [ 7]  840 	ld	e, (hl)
   03BE 23            [ 6]  841 	inc	hl
   03BF 56            [ 7]  842 	ld	d, (hl)
   03C0 21 8E 00      [10]  843 	ld	hl, #0x008e
   03C3 19            [11]  844 	add	hl, de
   03C4 36 02         [10]  845 	ld	(hl), #0x02
   03C6 23            [ 6]  846 	inc	hl
   03C7 36 00         [10]  847 	ld	(hl), #0x00
                            848 ;e4vm.c:114: (*v)->mem[3] = 3;
   03C9 69            [ 4]  849 	ld	l, c
   03CA 60            [ 4]  850 	ld	h, b
   03CB 5E            [ 7]  851 	ld	e, (hl)
   03CC 23            [ 6]  852 	inc	hl
   03CD 56            [ 7]  853 	ld	d, (hl)
   03CE 21 90 00      [10]  854 	ld	hl, #0x0090
   03D1 19            [11]  855 	add	hl, de
   03D2 36 03         [10]  856 	ld	(hl), #0x03
   03D4 23            [ 6]  857 	inc	hl
   03D5 36 00         [10]  858 	ld	(hl), #0x00
                            859 ;e4vm.c:115: (*v)->mem[4] = 4;
   03D7 69            [ 4]  860 	ld	l, c
   03D8 60            [ 4]  861 	ld	h, b
   03D9 5E            [ 7]  862 	ld	e, (hl)
   03DA 23            [ 6]  863 	inc	hl
   03DB 56            [ 7]  864 	ld	d, (hl)
   03DC 21 92 00      [10]  865 	ld	hl, #0x0092
   03DF 19            [11]  866 	add	hl, de
   03E0 36 04         [10]  867 	ld	(hl), #0x04
   03E2 23            [ 6]  868 	inc	hl
   03E3 36 00         [10]  869 	ld	(hl), #0x00
                            870 ;e4vm.c:116: (*v)->mem[5] = 5;
   03E5 69            [ 4]  871 	ld	l, c
   03E6 60            [ 4]  872 	ld	h, b
   03E7 5E            [ 7]  873 	ld	e, (hl)
   03E8 23            [ 6]  874 	inc	hl
   03E9 56            [ 7]  875 	ld	d, (hl)
   03EA 21 94 00      [10]  876 	ld	hl, #0x0094
   03ED 19            [11]  877 	add	hl, de
   03EE 36 05         [10]  878 	ld	(hl), #0x05
   03F0 23            [ 6]  879 	inc	hl
   03F1 36 00         [10]  880 	ld	(hl), #0x00
                            881 ;e4vm.c:117: (*v)->wp = 5;
   03F3 69            [ 4]  882 	ld	l, c
   03F4 60            [ 4]  883 	ld	h, b
   03F5 5E            [ 7]  884 	ld	e, (hl)
   03F6 23            [ 6]  885 	inc	hl
   03F7 56            [ 7]  886 	ld	d, (hl)
   03F8 13            [ 6]  887 	inc	de
   03F9 13            [ 6]  888 	inc	de
   03FA 62            [ 4]  889 	ld	h, d
   03FB 6B            [ 4]  890 	ld	l, e
   03FC 36 05         [10]  891 	ld	(hl), #0x05
   03FE 23            [ 6]  892 	inc	hl
   03FF 36 00         [10]  893 	ld	(hl), #0x00
                            894 ;e4vm.c:118: (*v)->mem[6] = 2;
   0401 69            [ 4]  895 	ld	l, c
   0402 60            [ 4]  896 	ld	h, b
   0403 5E            [ 7]  897 	ld	e, (hl)
   0404 23            [ 6]  898 	inc	hl
   0405 56            [ 7]  899 	ld	d, (hl)
   0406 21 96 00      [10]  900 	ld	hl, #0x0096
   0409 19            [11]  901 	add	hl, de
   040A 36 02         [10]  902 	ld	(hl), #0x02
   040C 23            [ 6]  903 	inc	hl
   040D 36 00         [10]  904 	ld	(hl), #0x00
                            905 ;e4vm.c:119: (*v)->mem[7] = 5;
   040F 69            [ 4]  906 	ld	l, c
   0410 60            [ 4]  907 	ld	h, b
   0411 5E            [ 7]  908 	ld	e, (hl)
   0412 23            [ 6]  909 	inc	hl
   0413 56            [ 7]  910 	ld	d, (hl)
   0414 21 98 00      [10]  911 	ld	hl, #0x0098
   0417 19            [11]  912 	add	hl, de
   0418 36 05         [10]  913 	ld	(hl), #0x05
   041A 23            [ 6]  914 	inc	hl
   041B 36 00         [10]  915 	ld	(hl), #0x00
                            916 ;e4vm.c:120: (*v)->mem[8] = 555;
   041D 69            [ 4]  917 	ld	l, c
   041E 60            [ 4]  918 	ld	h, b
   041F 5E            [ 7]  919 	ld	e, (hl)
   0420 23            [ 6]  920 	inc	hl
   0421 56            [ 7]  921 	ld	d, (hl)
   0422 21 9A 00      [10]  922 	ld	hl, #0x009a
   0425 19            [11]  923 	add	hl, de
   0426 36 2B         [10]  924 	ld	(hl), #0x2b
   0428 23            [ 6]  925 	inc	hl
   0429 36 02         [10]  926 	ld	(hl), #0x02
                            927 ;e4vm.c:121: (*v)->mem[9] = 3;
   042B 69            [ 4]  928 	ld	l, c
   042C 60            [ 4]  929 	ld	h, b
   042D 5E            [ 7]  930 	ld	e, (hl)
   042E 23            [ 6]  931 	inc	hl
   042F 56            [ 7]  932 	ld	d, (hl)
   0430 21 9C 00      [10]  933 	ld	hl, #0x009c
   0433 19            [11]  934 	add	hl, de
   0434 36 03         [10]  935 	ld	(hl), #0x03
   0436 23            [ 6]  936 	inc	hl
   0437 36 00         [10]  937 	ld	(hl), #0x00
                            938 ;e4vm.c:122: e4vm_core_do_list(v);
   0439 C5            [11]  939 	push	bc
   043A C5            [11]  940 	push	bc
   043B CDr00r00      [17]  941 	call	_e4vm_core_do_list
   043E F1            [10]  942 	pop	af
   043F DD 6E 04      [19]  943 	ld	l, 4 (ix)
   0442 DD 66 05      [19]  944 	ld	h, 5 (ix)
   0445 E5            [11]  945 	push	hl
   0446 CDr00r00      [17]  946 	call	_e4vm_core_do_next
   0449 F1            [10]  947 	pop	af
                            948 ;e4vm.c:124: if ((*v)->ds[0] == 555) {
   044A E1            [10]  949 	pop	hl
   044B 4E            [ 7]  950 	ld	c, (hl)
   044C 23            [ 6]  951 	inc	hl
   044D 66            [ 7]  952 	ld	h, (hl)
   044E 69            [ 4]  953 	ld	l, c
   044F 11 44 00      [10]  954 	ld	de, #0x0044
   0452 19            [11]  955 	add	hl, de
   0453 4E            [ 7]  956 	ld	c, (hl)
   0454 23            [ 6]  957 	inc	hl
   0455 46            [ 7]  958 	ld	b, (hl)
   0456 79            [ 4]  959 	ld	a, c
   0457 D6 2B         [ 7]  960 	sub	a, #0x2b
   0459 20 10         [12]  961 	jr	NZ,00102$
   045B 78            [ 4]  962 	ld	a, b
   045C D6 02         [ 7]  963 	sub	a, #0x02
   045E 20 0B         [12]  964 	jr	NZ,00102$
                            965 ;e4vm.c:125: Console_WriteStrLn((CHAR*)" - ok", 6);
   0460 21r7Er04      [10]  966 	ld	hl, #___str_2
   0463 CDr00r00      [17]  967 	call	_Console_WriteStr_C_COMPACT
   0466 CDr00r00      [17]  968 	call	_Console_WriteLn_COMPACT
   0469 18 09         [12]  969 	jr	00104$
   046B                     970 00102$:
                            971 ;e4vm.c:127: Console_WriteStrLn((CHAR*)" - error", 9);
   046B 21r84r04      [10]  972 	ld	hl, #___str_3
   046E CDr00r00      [17]  973 	call	_Console_WriteStr_C_COMPACT
   0471 CDr00r00      [17]  974 	call	_Console_WriteLn_COMPACT
   0474                     975 00104$:
                            976 ;e4vm.c:129: }
   0474 DD E1         [14]  977 	pop	ix
   0476 C9            [10]  978 	ret
   0477                     979 ___str_1:
   0477 64 6F 6C 69 74 20   980 	.ascii "dolit "
   047D 00                  981 	.db 0x00
   047E                     982 ___str_2:
   047E 20 2D 20 6F 6B      983 	.ascii " - ok"
   0483 00                  984 	.db 0x00
   0484                     985 ___str_3:
   0484 20 2D 20 65 72 72   986 	.ascii " - error"
        6F 72
   048C 00                  987 	.db 0x00
                            988 ;e4vm.c:132: int main (int argc, char **argv)
                            989 ;	---------------------------------
                            990 ; Function main
                            991 ; ---------------------------------
   048D                     992 _main::
                            993 ;e4vm.c:137: __IMPORT(e4vm_core__init);
   048D CDr00r00      [17]  994 	call	_e4vm_core__init
                            995 ;e4vm.c:138: __IMPORT(e4vm_utils__init);
   0490 CDr00r00      [17]  996 	call	_e4vm_utils__init
                            997 ;e4vm.c:141: Basic_Init();
   0493 FD CB 01 A6   [23]  998 	res	4,1(iy) 
   0497 CD 42 16      [17]  999 	call 0x1642 
                           1000 ;e4vm.c:142: Console_Clear(7);
   049A 2E 07         [ 7] 1001 	ld	l, #0x07
   049C CDr00r00      [17] 1002 	call	_Console_Clear_COMPACT
                           1003 ;e4vm.c:143: Console_SetColors(56);
   049F 21r00r00      [10] 1004 	ld	hl, #_Console_attrib
   04A2 36 38         [10] 1005 	ld	(hl), #0x38
                           1006 ;e4vm.c:144: e4vm_vm = (e4vm_type_x4thPtr)((SYSTEM_ADRINT)&e4vm_vm_static);
   04A4 21r00r00      [10] 1007 	ld	hl, #_e4vm_vm_static
   04A7 22r0Dr01      [16] 1008 	ld	(_e4vm_vm), hl
                           1009 ;e4vm.c:145: e4vm_test_dolit(&e4vm_vm);
   04AA 21r0Dr01      [10] 1010 	ld	hl, #_e4vm_vm
   04AD E5            [11] 1011 	push	hl
   04AE CDr20r03      [17] 1012 	call	_e4vm_test_dolit
   04B1 F1            [10] 1013 	pop	af
                           1014 ;e4vm.c:146: Basic_PAUSE(0);
   04B2 21 00 00      [10] 1015 	ld	hl, #0x0000
   04B5 CDr00r00      [17] 1016 	call	_Basic_PAUSE_EI
                           1017 ;e4vm.c:147: Basic_Quit();
                           1018 ;e4vm.c:148: __FINI;
                           1019 ;e4vm.c:149: }
   04B8 C3r00r00      [10] 1020 	jp  _Basic_Quit_IM1
                           1021 	.area _CODE
                           1022 	.area _INITIALIZER
                           1023 	.area _CABS (ABS)
