                              1 ;--------------------------------------------------------
                              2 ; File Created by SDCC : free open source ANSI-C Compiler
                              3 ; Version 3.9.3 #11378 (MINGW32)
                              4 ;--------------------------------------------------------
                              5 	.module e4vm
                              6 	.optsdcc -mz80
                              7 	
                              8 ;--------------------------------------------------------
                              9 ; Public variables in this module
                             10 ;--------------------------------------------------------
                             11 	.globl _main
                             12 	.globl _e4vm_utils__init
                             13 	.globl _e4vm_utils_true_const
                             14 	.globl _e4vm_utils_stack_ds_push
                             15 	.globl _e4vm_utils_read_string
                             16 	.globl _e4vm_utils_read_char
                             17 	.globl _e4vm_utils_look_up_word_address
                             18 	.globl _e4vm_utils_init
                             19 	.globl _e4vm_utils_here_to_wp
                             20 	.globl _e4vm_utils_false_const
                             21 	.globl _e4vm_utils_add_op_from_string
                             22 	.globl _e4vm_utils_add_op
                             23 	.globl _e4vm_utils_add_core_word
                             24 	.globl _e4vm_boolean__init
                             25 	.globl _e4vm_boolean_add_core_words
                             26 	.globl _e4vm_math__init
                             27 	.globl _e4vm_math_add_core_words
                             28 	.globl _e4vm_stack__init
                             29 	.globl _e4vm_stack_add_core_words
                             30 	.globl _e4vm_core_ext__init
                             31 	.globl _e4vm_core_ext_add_core_words
                             32 	.globl _e4vm_core__init
                             33 	.globl _e4vm_core_do_next
                             34 	.globl _e4vm_core_do_list
                             35 	.globl _e4vm_core_add_core_words
                             36 	.globl _e4vm_type__init
                             37 	.globl _Basic_Quit_IM1
                             38 	.globl _Basic_PAUSE_EI
                             39 	.globl _Console_Clear_COMPACT
                             40 	.globl _Console_WriteStr_C_COMPACT
                             41 	.globl _Console_WriteInt_COMPACT
                             42 	.globl _Console_WriteLn_COMPACT
                             43 	.globl _Console_WriteCh_COMPACT
                             44 	.globl _memcpy
                             45 ;--------------------------------------------------------
                             46 ; special function registers
                             47 ;--------------------------------------------------------
                             48 ;--------------------------------------------------------
                             49 ; ram data
                             50 ;--------------------------------------------------------
                             51 	.area _DATA
   0000                      52 _e4vm_vm_static:
   0000                      53 	.ds 783
   030F                      54 _e4vm_vm:
   030F                      55 	.ds 2
                             56 ;--------------------------------------------------------
                             57 ; ram data
                             58 ;--------------------------------------------------------
                             59 	.area _INITIALIZED
                             60 ;--------------------------------------------------------
                             61 ; absolute external ram data
                             62 ;--------------------------------------------------------
                             63 	.area _DABS (ABS)
                             64 ;--------------------------------------------------------
                             65 ; global & static initialisations
                             66 ;--------------------------------------------------------
                             67 	.area _HOME
                             68 	.area _GSINIT
                             69 	.area _GSFINAL
                             70 	.area _GSINIT
                             71 ;--------------------------------------------------------
                             72 ; Home
                             73 ;--------------------------------------------------------
                             74 	.area _HOME
                             75 	.area _HOME
                             76 ;--------------------------------------------------------
                             77 ; code
                             78 ;--------------------------------------------------------
                             79 	.area _CODE
                             80 ;e4vm.c:51: static void e4vm_do_hello (e4vm_type_x4thPtr *v)
                             81 ;	---------------------------------
                             82 ; Function e4vm_do_hello
                             83 ; ---------------------------------
   0000                      84 _e4vm_do_hello:
   0000 CDr00r00      [17]   85 	call	___sdcc_enter_ix
                             86 ;e4vm.c:53: (*v)->mem[30] = 1;
   0003 DD 6E 04      [19]   87 	ld	l, 4 (ix)
   0006 DD 66 05      [19]   88 	ld	h, 5 (ix)
   0009 4E            [ 7]   89 	ld	c, (hl)
   000A 23            [ 6]   90 	inc	hl
   000B 46            [ 7]   91 	ld	b, (hl)
   000C 21 C6 00      [10]   92 	ld	hl, #0x00c6
   000F 09            [11]   93 	add	hl, bc
   0010 36 01         [10]   94 	ld	(hl), #0x01
   0012 23            [ 6]   95 	inc	hl
   0013 36 00         [10]   96 	ld	(hl), #0x00
                             97 ;e4vm.c:54: }
   0015 DD E1         [14]   98 	pop	ix
   0017 C9            [10]   99 	ret
                            100 ;e4vm.c:56: static void e4vm_test1 (e4vm_type_x4thPtr *v)
                            101 ;	---------------------------------
                            102 ; Function e4vm_test1
                            103 ; ---------------------------------
   0018                     104 _e4vm_test1:
   0018 CDr00r00      [17]  105 	call	___sdcc_enter_ix
   001B 21 B0 FF      [10]  106 	ld	hl, #-80
   001E 39            [11]  107 	add	hl, sp
   001F F9            [ 6]  108 	ld	sp, hl
                            109 ;e4vm.c:66: Console_WriteStr((CHAR*)"e4vm_core test1 ", 17);
   0020 21rC0r01      [10]  110 	ld	hl, #___str_0
   0023 CDr00r00      [17]  111 	call	_Console_WriteStr_C_COMPACT
                            112 ;e4vm.c:67: e4vm_utils_init(v);
   0026 DD 6E 04      [19]  113 	ld	l, 4 (ix)
   0029 DD 66 05      [19]  114 	ld	h, 5 (ix)
   002C E5            [11]  115 	push	hl
   002D CDr00r00      [17]  116 	call	_e4vm_utils_init
   0030 F1            [10]  117 	pop	af
                            118 ;e4vm.c:68: e4vm_core_add_core_words(v);
   0031 DD 6E 04      [19]  119 	ld	l, 4 (ix)
   0034 DD 66 05      [19]  120 	ld	h, 5 (ix)
   0037 E5            [11]  121 	push	hl
   0038 CDr00r00      [17]  122 	call	_e4vm_core_add_core_words
   003B F1            [10]  123 	pop	af
                            124 ;e4vm.c:69: __MOVE((CHAR*)"hello", _str__10, 6);
   003C 21 00 00      [10]  125 	ld	hl, #0
   003F 39            [11]  126 	add	hl, sp
   0040 EB            [ 4]  127 	ex	de, hl
   0041 4B            [ 4]  128 	ld	c, e
   0042 42            [ 4]  129 	ld	b, d
   0043 D5            [11]  130 	push	de
   0044 21 06 00      [10]  131 	ld	hl, #0x0006
   0047 E5            [11]  132 	push	hl
   0048 21rD1r01      [10]  133 	ld	hl, #___str_1
   004B E5            [11]  134 	push	hl
   004C C5            [11]  135 	push	bc
   004D CDr00r00      [17]  136 	call	_memcpy
   0050 F1            [10]  137 	pop	af
   0051 F1            [10]  138 	pop	af
   0052 F1            [10]  139 	pop	af
   0053 D1            [10]  140 	pop	de
                            141 ;e4vm.c:70: e4vm_utils_add_core_word(v, (void*)_str__10, e4vm_do_hello, 0);
   0054 AF            [ 4]  142 	xor	a, a
   0055 F5            [11]  143 	push	af
   0056 33            [ 6]  144 	inc	sp
   0057 21r00r00      [10]  145 	ld	hl, #_e4vm_do_hello
   005A E5            [11]  146 	push	hl
   005B D5            [11]  147 	push	de
   005C DD 6E 04      [19]  148 	ld	l, 4 (ix)
   005F DD 66 05      [19]  149 	ld	h, 5 (ix)
   0062 E5            [11]  150 	push	hl
   0063 CDr00r00      [17]  151 	call	_e4vm_utils_add_core_word
   0066 F1            [10]  152 	pop	af
   0067 F1            [10]  153 	pop	af
   0068 F1            [10]  154 	pop	af
   0069 33            [ 6]  155 	inc	sp
                            156 ;e4vm.c:71: __MOVE((CHAR*)"dolist", _str__9, 7);
   006A 21 0A 00      [10]  157 	ld	hl, #10
   006D 39            [11]  158 	add	hl, sp
   006E EB            [ 4]  159 	ex	de, hl
   006F 4B            [ 4]  160 	ld	c, e
   0070 42            [ 4]  161 	ld	b, d
   0071 D5            [11]  162 	push	de
   0072 21 07 00      [10]  163 	ld	hl, #0x0007
   0075 E5            [11]  164 	push	hl
   0076 21rD7r01      [10]  165 	ld	hl, #___str_2
   0079 E5            [11]  166 	push	hl
   007A C5            [11]  167 	push	bc
   007B CDr00r00      [17]  168 	call	_memcpy
   007E F1            [10]  169 	pop	af
   007F F1            [10]  170 	pop	af
   0080 F1            [10]  171 	pop	af
   0081 DD 6E 04      [19]  172 	ld	l, 4 (ix)
   0084 DD 66 05      [19]  173 	ld	h, 5 (ix)
   0087 E5            [11]  174 	push	hl
   0088 CDr00r00      [17]  175 	call	_e4vm_utils_add_op_from_string
   008B F1            [10]  176 	pop	af
   008C F1            [10]  177 	pop	af
                            178 ;e4vm.c:73: __MOVE((CHAR*)"hello", _str__8, 6);
   008D 21 14 00      [10]  179 	ld	hl, #20
   0090 39            [11]  180 	add	hl, sp
   0091 EB            [ 4]  181 	ex	de, hl
   0092 4B            [ 4]  182 	ld	c, e
   0093 42            [ 4]  183 	ld	b, d
   0094 D5            [11]  184 	push	de
   0095 21 06 00      [10]  185 	ld	hl, #0x0006
   0098 E5            [11]  186 	push	hl
   0099 21rD1r01      [10]  187 	ld	hl, #___str_1
   009C E5            [11]  188 	push	hl
   009D C5            [11]  189 	push	bc
   009E CDr00r00      [17]  190 	call	_memcpy
   00A1 F1            [10]  191 	pop	af
   00A2 F1            [10]  192 	pop	af
   00A3 F1            [10]  193 	pop	af
   00A4 DD 6E 04      [19]  194 	ld	l, 4 (ix)
   00A7 DD 66 05      [19]  195 	ld	h, 5 (ix)
   00AA E5            [11]  196 	push	hl
   00AB CDr00r00      [17]  197 	call	_e4vm_utils_add_op_from_string
   00AE F1            [10]  198 	pop	af
   00AF F1            [10]  199 	pop	af
                            200 ;e4vm.c:75: __MOVE((CHAR*)"exit", _str__7, 5);
   00B0 21 1E 00      [10]  201 	ld	hl, #30
   00B3 39            [11]  202 	add	hl, sp
   00B4 EB            [ 4]  203 	ex	de, hl
   00B5 4B            [ 4]  204 	ld	c, e
   00B6 42            [ 4]  205 	ld	b, d
   00B7 D5            [11]  206 	push	de
   00B8 21 05 00      [10]  207 	ld	hl, #0x0005
   00BB E5            [11]  208 	push	hl
   00BC 21rDEr01      [10]  209 	ld	hl, #___str_3
   00BF E5            [11]  210 	push	hl
   00C0 C5            [11]  211 	push	bc
   00C1 CDr00r00      [17]  212 	call	_memcpy
   00C4 F1            [10]  213 	pop	af
   00C5 F1            [10]  214 	pop	af
   00C6 F1            [10]  215 	pop	af
   00C7 DD 6E 04      [19]  216 	ld	l, 4 (ix)
   00CA DD 66 05      [19]  217 	ld	h, 5 (ix)
   00CD E5            [11]  218 	push	hl
   00CE CDr00r00      [17]  219 	call	_e4vm_utils_add_op_from_string
   00D1 F1            [10]  220 	pop	af
   00D2 F1            [10]  221 	pop	af
                            222 ;e4vm.c:77: __MOVE((CHAR*)"dolist", _str__6, 7);
   00D3 21 28 00      [10]  223 	ld	hl, #40
   00D6 39            [11]  224 	add	hl, sp
   00D7 EB            [ 4]  225 	ex	de, hl
   00D8 4B            [ 4]  226 	ld	c, e
   00D9 42            [ 4]  227 	ld	b, d
   00DA D5            [11]  228 	push	de
   00DB 21 07 00      [10]  229 	ld	hl, #0x0007
   00DE E5            [11]  230 	push	hl
   00DF 21rD7r01      [10]  231 	ld	hl, #___str_2
   00E2 E5            [11]  232 	push	hl
   00E3 C5            [11]  233 	push	bc
   00E4 CDr00r00      [17]  234 	call	_memcpy
   00E7 F1            [10]  235 	pop	af
   00E8 F1            [10]  236 	pop	af
   00E9 F1            [10]  237 	pop	af
   00EA DD 6E 04      [19]  238 	ld	l, 4 (ix)
   00ED DD 66 05      [19]  239 	ld	h, 5 (ix)
   00F0 E5            [11]  240 	push	hl
   00F1 CDr00r00      [17]  241 	call	_e4vm_utils_add_op_from_string
   00F4 F1            [10]  242 	pop	af
   00F5 F1            [10]  243 	pop	af
                            244 ;e4vm.c:79: __MOVE((CHAR*)"nop", _str__5, 4);
   00F6 21 32 00      [10]  245 	ld	hl, #50
   00F9 39            [11]  246 	add	hl, sp
   00FA EB            [ 4]  247 	ex	de, hl
   00FB 4B            [ 4]  248 	ld	c, e
   00FC 42            [ 4]  249 	ld	b, d
   00FD D5            [11]  250 	push	de
   00FE 21 04 00      [10]  251 	ld	hl, #0x0004
   0101 E5            [11]  252 	push	hl
   0102 21rE3r01      [10]  253 	ld	hl, #___str_4
   0105 E5            [11]  254 	push	hl
   0106 C5            [11]  255 	push	bc
   0107 CDr00r00      [17]  256 	call	_memcpy
   010A F1            [10]  257 	pop	af
   010B F1            [10]  258 	pop	af
   010C F1            [10]  259 	pop	af
   010D DD 6E 04      [19]  260 	ld	l, 4 (ix)
   0110 DD 66 05      [19]  261 	ld	h, 5 (ix)
   0113 E5            [11]  262 	push	hl
   0114 CDr00r00      [17]  263 	call	_e4vm_utils_add_op_from_string
   0117 F1            [10]  264 	pop	af
                            265 ;e4vm.c:81: e4vm_utils_add_op(v, 4);
   0118 21 04 00      [10]  266 	ld	hl, #0x0004
   011B E3            [19]  267 	ex	(sp),hl
   011C DD 6E 04      [19]  268 	ld	l, 4 (ix)
   011F DD 66 05      [19]  269 	ld	h, 5 (ix)
   0122 E5            [11]  270 	push	hl
   0123 CDr00r00      [17]  271 	call	_e4vm_utils_add_op
   0126 F1            [10]  272 	pop	af
   0127 F1            [10]  273 	pop	af
                            274 ;e4vm.c:82: __MOVE((CHAR*)"nop", _str__4, 4);
   0128 21 3C 00      [10]  275 	ld	hl, #60
   012B 39            [11]  276 	add	hl, sp
   012C EB            [ 4]  277 	ex	de, hl
   012D 4B            [ 4]  278 	ld	c, e
   012E 42            [ 4]  279 	ld	b, d
   012F D5            [11]  280 	push	de
   0130 21 04 00      [10]  281 	ld	hl, #0x0004
   0133 E5            [11]  282 	push	hl
   0134 21rE3r01      [10]  283 	ld	hl, #___str_4
   0137 E5            [11]  284 	push	hl
   0138 C5            [11]  285 	push	bc
   0139 CDr00r00      [17]  286 	call	_memcpy
   013C F1            [10]  287 	pop	af
   013D F1            [10]  288 	pop	af
   013E F1            [10]  289 	pop	af
   013F DD 6E 04      [19]  290 	ld	l, 4 (ix)
   0142 DD 66 05      [19]  291 	ld	h, 5 (ix)
   0145 E5            [11]  292 	push	hl
   0146 CDr00r00      [17]  293 	call	_e4vm_utils_add_op_from_string
   0149 F1            [10]  294 	pop	af
   014A F1            [10]  295 	pop	af
                            296 ;e4vm.c:84: __MOVE((CHAR*)"exit", _str__3, 5);
   014B 21 46 00      [10]  297 	ld	hl, #70
   014E 39            [11]  298 	add	hl, sp
   014F EB            [ 4]  299 	ex	de, hl
   0150 4B            [ 4]  300 	ld	c, e
   0151 42            [ 4]  301 	ld	b, d
   0152 D5            [11]  302 	push	de
   0153 21 05 00      [10]  303 	ld	hl, #0x0005
   0156 E5            [11]  304 	push	hl
   0157 21rDEr01      [10]  305 	ld	hl, #___str_3
   015A E5            [11]  306 	push	hl
   015B C5            [11]  307 	push	bc
   015C CDr00r00      [17]  308 	call	_memcpy
   015F F1            [10]  309 	pop	af
   0160 F1            [10]  310 	pop	af
   0161 F1            [10]  311 	pop	af
   0162 DD 6E 04      [19]  312 	ld	l, 4 (ix)
   0165 DD 66 05      [19]  313 	ld	h, 5 (ix)
   0168 E5            [11]  314 	push	hl
   0169 CDr00r00      [17]  315 	call	_e4vm_utils_add_op_from_string
   016C F1            [10]  316 	pop	af
   016D F1            [10]  317 	pop	af
                            318 ;e4vm.c:86: (*v)->wp = 8;
   016E DD 4E 04      [19]  319 	ld	c, 4 (ix)
   0171 DD 46 05      [19]  320 	ld	b, 5 (ix)
   0174 69            [ 4]  321 	ld	l, c
   0175 60            [ 4]  322 	ld	h, b
   0176 5E            [ 7]  323 	ld	e, (hl)
   0177 23            [ 6]  324 	inc	hl
   0178 56            [ 7]  325 	ld	d, (hl)
   0179 13            [ 6]  326 	inc	de
   017A 13            [ 6]  327 	inc	de
   017B 62            [ 4]  328 	ld	h, d
   017C 6B            [ 4]  329 	ld	l, e
   017D 36 08         [10]  330 	ld	(hl), #0x08
   017F 23            [ 6]  331 	inc	hl
   0180 36 00         [10]  332 	ld	(hl), #0x00
                            333 ;e4vm.c:87: e4vm_core_do_list(v);
   0182 C5            [11]  334 	push	bc
   0183 C5            [11]  335 	push	bc
   0184 CDr00r00      [17]  336 	call	_e4vm_core_do_list
   0187 F1            [10]  337 	pop	af
   0188 DD 6E 04      [19]  338 	ld	l, 4 (ix)
   018B DD 66 05      [19]  339 	ld	h, 5 (ix)
   018E E5            [11]  340 	push	hl
   018F CDr00r00      [17]  341 	call	_e4vm_core_do_next
   0192 F1            [10]  342 	pop	af
                            343 ;e4vm.c:89: if ((*v)->mem[30] == 1) {
   0193 E1            [10]  344 	pop	hl
   0194 4E            [ 7]  345 	ld	c, (hl)
   0195 23            [ 6]  346 	inc	hl
   0196 66            [ 7]  347 	ld	h, (hl)
   0197 69            [ 4]  348 	ld	l, c
   0198 11 C6 00      [10]  349 	ld	de, #0x00c6
   019B 19            [11]  350 	add	hl, de
   019C 4E            [ 7]  351 	ld	c, (hl)
   019D 23            [ 6]  352 	inc	hl
   019E 46            [ 7]  353 	ld	b, (hl)
   019F 79            [ 4]  354 	ld	a, c
   01A0 3D            [ 4]  355 	dec	a
   01A1 B0            [ 4]  356 	or	a, b
   01A2 20 08         [12]  357 	jr	NZ,00102$
                            358 ;e4vm.c:90: Console_WriteStr((CHAR*)" - ok", 6);
   01A4 21rE7r01      [10]  359 	ld	hl, #___str_5
   01A7 CDr00r00      [17]  360 	call	_Console_WriteStr_C_COMPACT
   01AA 18 06         [12]  361 	jr	00103$
   01AC                     362 00102$:
                            363 ;e4vm.c:92: Console_WriteStr((CHAR*)" - error", 9);
   01AC 21rEDr01      [10]  364 	ld	hl, #___str_6
   01AF CDr00r00      [17]  365 	call	_Console_WriteStr_C_COMPACT
   01B2                     366 00103$:
                            367 ;e4vm.c:94: Console_WriteStrLn((CHAR*)" ", 2);
   01B2 21rF6r01      [10]  368 	ld	hl, #___str_7
   01B5 CDr00r00      [17]  369 	call	_Console_WriteStr_C_COMPACT
   01B8 CDr00r00      [17]  370 	call	_Console_WriteLn_COMPACT
                            371 ;e4vm.c:95: }
   01BB DD F9         [10]  372 	ld	sp, ix
   01BD DD E1         [14]  373 	pop	ix
   01BF C9            [10]  374 	ret
   01C0                     375 ___str_0:
   01C0 65 34 76 6D 5F 63   376 	.ascii "e4vm_core test1 "
        6F 72 65 20 74 65
        73 74 31 20
   01D0 00                  377 	.db 0x00
   01D1                     378 ___str_1:
   01D1 68 65 6C 6C 6F      379 	.ascii "hello"
   01D6 00                  380 	.db 0x00
   01D7                     381 ___str_2:
   01D7 64 6F 6C 69 73 74   382 	.ascii "dolist"
   01DD 00                  383 	.db 0x00
   01DE                     384 ___str_3:
   01DE 65 78 69 74         385 	.ascii "exit"
   01E2 00                  386 	.db 0x00
   01E3                     387 ___str_4:
   01E3 6E 6F 70            388 	.ascii "nop"
   01E6 00                  389 	.db 0x00
   01E7                     390 ___str_5:
   01E7 20 2D 20 6F 6B      391 	.ascii " - ok"
   01EC 00                  392 	.db 0x00
   01ED                     393 ___str_6:
   01ED 20 2D 20 65 72 72   394 	.ascii " - error"
        6F 72
   01F5 00                  395 	.db 0x00
   01F6                     396 ___str_7:
   01F6 20                  397 	.ascii " "
   01F7 00                  398 	.db 0x00
                            399 ;e4vm.c:97: static void e4vm_test_dolit (e4vm_type_x4thPtr *v)
                            400 ;	---------------------------------
                            401 ; Function e4vm_test_dolit
                            402 ; ---------------------------------
   01F8                     403 _e4vm_test_dolit:
   01F8 CDr00r00      [17]  404 	call	___sdcc_enter_ix
   01FB 21 E2 FF      [10]  405 	ld	hl, #-30
   01FE 39            [11]  406 	add	hl, sp
   01FF F9            [ 6]  407 	ld	sp, hl
                            408 ;e4vm.c:102: Console_WriteStr((CHAR*)"Test dolit ", 12);
   0200 21rF4r02      [10]  409 	ld	hl, #___str_8
   0203 CDr00r00      [17]  410 	call	_Console_WriteStr_C_COMPACT
                            411 ;e4vm.c:103: e4vm_utils_init(v);
   0206 DD 6E 04      [19]  412 	ld	l, 4 (ix)
   0209 DD 66 05      [19]  413 	ld	h, 5 (ix)
   020C E5            [11]  414 	push	hl
   020D CDr00r00      [17]  415 	call	_e4vm_utils_init
   0210 F1            [10]  416 	pop	af
                            417 ;e4vm.c:104: e4vm_core_add_core_words(v);
   0211 DD 6E 04      [19]  418 	ld	l, 4 (ix)
   0214 DD 66 05      [19]  419 	ld	h, 5 (ix)
   0217 E5            [11]  420 	push	hl
   0218 CDr00r00      [17]  421 	call	_e4vm_core_add_core_words
   021B F1            [10]  422 	pop	af
                            423 ;e4vm.c:105: e4vm_core_ext_add_core_words(v);
   021C DD 6E 04      [19]  424 	ld	l, 4 (ix)
   021F DD 66 05      [19]  425 	ld	h, 5 (ix)
   0222 E5            [11]  426 	push	hl
   0223 CDr00r00      [17]  427 	call	_e4vm_core_ext_add_core_words
   0226 F1            [10]  428 	pop	af
                            429 ;e4vm.c:106: e4vm_utils_here_to_wp(v);
   0227 DD 6E 04      [19]  430 	ld	l, 4 (ix)
   022A DD 66 05      [19]  431 	ld	h, 5 (ix)
   022D E5            [11]  432 	push	hl
   022E CDr00r00      [17]  433 	call	_e4vm_utils_here_to_wp
   0231 F1            [10]  434 	pop	af
                            435 ;e4vm.c:107: __MOVE((CHAR*)"dolist", _str__37, 7);
   0232 21 00 00      [10]  436 	ld	hl, #0
   0235 39            [11]  437 	add	hl, sp
   0236 EB            [ 4]  438 	ex	de, hl
   0237 4B            [ 4]  439 	ld	c, e
   0238 42            [ 4]  440 	ld	b, d
   0239 D5            [11]  441 	push	de
   023A 21 07 00      [10]  442 	ld	hl, #0x0007
   023D E5            [11]  443 	push	hl
   023E 21r00r03      [10]  444 	ld	hl, #___str_9
   0241 E5            [11]  445 	push	hl
   0242 C5            [11]  446 	push	bc
   0243 CDr00r00      [17]  447 	call	_memcpy
   0246 F1            [10]  448 	pop	af
   0247 F1            [10]  449 	pop	af
   0248 F1            [10]  450 	pop	af
   0249 DD 6E 04      [19]  451 	ld	l, 4 (ix)
   024C DD 66 05      [19]  452 	ld	h, 5 (ix)
   024F E5            [11]  453 	push	hl
   0250 CDr00r00      [17]  454 	call	_e4vm_utils_add_op_from_string
   0253 F1            [10]  455 	pop	af
   0254 F1            [10]  456 	pop	af
                            457 ;e4vm.c:109: __MOVE((CHAR*)"dolit", _str__36, 6);
   0255 21 0A 00      [10]  458 	ld	hl, #10
   0258 39            [11]  459 	add	hl, sp
   0259 EB            [ 4]  460 	ex	de, hl
   025A 4B            [ 4]  461 	ld	c, e
   025B 42            [ 4]  462 	ld	b, d
   025C D5            [11]  463 	push	de
   025D 21 06 00      [10]  464 	ld	hl, #0x0006
   0260 E5            [11]  465 	push	hl
   0261 21r07r03      [10]  466 	ld	hl, #___str_10
   0264 E5            [11]  467 	push	hl
   0265 C5            [11]  468 	push	bc
   0266 CDr00r00      [17]  469 	call	_memcpy
   0269 F1            [10]  470 	pop	af
   026A F1            [10]  471 	pop	af
   026B F1            [10]  472 	pop	af
   026C DD 6E 04      [19]  473 	ld	l, 4 (ix)
   026F DD 66 05      [19]  474 	ld	h, 5 (ix)
   0272 E5            [11]  475 	push	hl
   0273 CDr00r00      [17]  476 	call	_e4vm_utils_add_op_from_string
   0276 F1            [10]  477 	pop	af
                            478 ;e4vm.c:111: e4vm_utils_add_op(v, 555);
   0277 21 2B 02      [10]  479 	ld	hl, #0x022b
   027A E3            [19]  480 	ex	(sp),hl
   027B DD 6E 04      [19]  481 	ld	l, 4 (ix)
   027E DD 66 05      [19]  482 	ld	h, 5 (ix)
   0281 E5            [11]  483 	push	hl
   0282 CDr00r00      [17]  484 	call	_e4vm_utils_add_op
   0285 F1            [10]  485 	pop	af
   0286 F1            [10]  486 	pop	af
                            487 ;e4vm.c:112: __MOVE((CHAR*)"exit", _str__35, 5);
   0287 21 14 00      [10]  488 	ld	hl, #20
   028A 39            [11]  489 	add	hl, sp
   028B EB            [ 4]  490 	ex	de, hl
   028C 4B            [ 4]  491 	ld	c, e
   028D 42            [ 4]  492 	ld	b, d
   028E D5            [11]  493 	push	de
   028F 21 05 00      [10]  494 	ld	hl, #0x0005
   0292 E5            [11]  495 	push	hl
   0293 21r0Dr03      [10]  496 	ld	hl, #___str_11
   0296 E5            [11]  497 	push	hl
   0297 C5            [11]  498 	push	bc
   0298 CDr00r00      [17]  499 	call	_memcpy
   029B F1            [10]  500 	pop	af
   029C F1            [10]  501 	pop	af
   029D F1            [10]  502 	pop	af
   029E DD 6E 04      [19]  503 	ld	l, 4 (ix)
   02A1 DD 66 05      [19]  504 	ld	h, 5 (ix)
   02A4 E5            [11]  505 	push	hl
   02A5 CDr00r00      [17]  506 	call	_e4vm_utils_add_op_from_string
   02A8 F1            [10]  507 	pop	af
   02A9 F1            [10]  508 	pop	af
                            509 ;e4vm.c:114: e4vm_core_do_list(v);
   02AA DD 6E 04      [19]  510 	ld	l, 4 (ix)
   02AD DD 66 05      [19]  511 	ld	h, 5 (ix)
   02B0 E5            [11]  512 	push	hl
   02B1 CDr00r00      [17]  513 	call	_e4vm_core_do_list
   02B4 F1            [10]  514 	pop	af
                            515 ;e4vm.c:115: e4vm_core_do_next(v);
   02B5 DD 6E 04      [19]  516 	ld	l, 4 (ix)
   02B8 DD 66 05      [19]  517 	ld	h, 5 (ix)
   02BB E5            [11]  518 	push	hl
   02BC CDr00r00      [17]  519 	call	_e4vm_core_do_next
   02BF F1            [10]  520 	pop	af
                            521 ;e4vm.c:116: if ((*v)->ds[0] == 555) {
   02C0 DD 6E 04      [19]  522 	ld	l, 4 (ix)
   02C3 DD 66 05      [19]  523 	ld	h, 5 (ix)
   02C6 5E            [ 7]  524 	ld	e, (hl)
   02C7 23            [ 6]  525 	inc	hl
   02C8 66            [ 7]  526 	ld	h, (hl)
   02C9 6B            [ 4]  527 	ld	l, e
   02CA 11 44 00      [10]  528 	ld	de, #0x0044
   02CD 19            [11]  529 	add	hl, de
   02CE 4E            [ 7]  530 	ld	c, (hl)
   02CF 23            [ 6]  531 	inc	hl
   02D0 46            [ 7]  532 	ld	b, (hl)
   02D1 79            [ 4]  533 	ld	a, c
   02D2 D6 2B         [ 7]  534 	sub	a, #0x2b
   02D4 20 10         [12]  535 	jr	NZ,00102$
   02D6 78            [ 4]  536 	ld	a, b
   02D7 D6 02         [ 7]  537 	sub	a, #0x02
   02D9 20 0B         [12]  538 	jr	NZ,00102$
                            539 ;e4vm.c:117: Console_WriteStrLn((CHAR*)" - ok", 6);
   02DB 21r12r03      [10]  540 	ld	hl, #___str_12
   02DE CDr00r00      [17]  541 	call	_Console_WriteStr_C_COMPACT
   02E1 CDr00r00      [17]  542 	call	_Console_WriteLn_COMPACT
   02E4 18 09         [12]  543 	jr	00104$
   02E6                     544 00102$:
                            545 ;e4vm.c:119: Console_WriteStrLn((CHAR*)" - error", 9);
   02E6 21r18r03      [10]  546 	ld	hl, #___str_13
   02E9 CDr00r00      [17]  547 	call	_Console_WriteStr_C_COMPACT
   02EC CDr00r00      [17]  548 	call	_Console_WriteLn_COMPACT
   02EF                     549 00104$:
                            550 ;e4vm.c:121: }
   02EF DD F9         [10]  551 	ld	sp, ix
   02F1 DD E1         [14]  552 	pop	ix
   02F3 C9            [10]  553 	ret
   02F4                     554 ___str_8:
   02F4 54 65 73 74 20 64   555 	.ascii "Test dolit "
        6F 6C 69 74 20
   02FF 00                  556 	.db 0x00
   0300                     557 ___str_9:
   0300 64 6F 6C 69 73 74   558 	.ascii "dolist"
   0306 00                  559 	.db 0x00
   0307                     560 ___str_10:
   0307 64 6F 6C 69 74      561 	.ascii "dolit"
   030C 00                  562 	.db 0x00
   030D                     563 ___str_11:
   030D 65 78 69 74         564 	.ascii "exit"
   0311 00                  565 	.db 0x00
   0312                     566 ___str_12:
   0312 20 2D 20 6F 6B      567 	.ascii " - ok"
   0317 00                  568 	.db 0x00
   0318                     569 ___str_13:
   0318 20 2D 20 65 72 72   570 	.ascii " - error"
        6F 72
   0320 00                  571 	.db 0x00
                            572 ;e4vm.c:123: static void e4vm_test_drop (e4vm_type_x4thPtr *v)
                            573 ;	---------------------------------
                            574 ; Function e4vm_test_drop
                            575 ; ---------------------------------
   0321                     576 _e4vm_test_drop:
   0321 CDr00r00      [17]  577 	call	___sdcc_enter_ix
   0324 21 E2 FF      [10]  578 	ld	hl, #-30
   0327 39            [11]  579 	add	hl, sp
   0328 F9            [ 6]  580 	ld	sp, hl
                            581 ;e4vm.c:128: Console_WriteStr((CHAR*)"Test drop ", 11);
   0329 21r34r04      [10]  582 	ld	hl, #___str_14
   032C CDr00r00      [17]  583 	call	_Console_WriteStr_C_COMPACT
                            584 ;e4vm.c:129: e4vm_utils_init(v);
   032F DD 6E 04      [19]  585 	ld	l, 4 (ix)
   0332 DD 66 05      [19]  586 	ld	h, 5 (ix)
   0335 E5            [11]  587 	push	hl
   0336 CDr00r00      [17]  588 	call	_e4vm_utils_init
   0339 F1            [10]  589 	pop	af
                            590 ;e4vm.c:130: e4vm_core_add_core_words(v);
   033A DD 6E 04      [19]  591 	ld	l, 4 (ix)
   033D DD 66 05      [19]  592 	ld	h, 5 (ix)
   0340 E5            [11]  593 	push	hl
   0341 CDr00r00      [17]  594 	call	_e4vm_core_add_core_words
   0344 F1            [10]  595 	pop	af
                            596 ;e4vm.c:131: e4vm_stack_add_core_words(v);
   0345 DD 6E 04      [19]  597 	ld	l, 4 (ix)
   0348 DD 66 05      [19]  598 	ld	h, 5 (ix)
   034B E5            [11]  599 	push	hl
   034C CDr00r00      [17]  600 	call	_e4vm_stack_add_core_words
   034F F1            [10]  601 	pop	af
                            602 ;e4vm.c:132: e4vm_utils_here_to_wp(v);
   0350 DD 6E 04      [19]  603 	ld	l, 4 (ix)
   0353 DD 66 05      [19]  604 	ld	h, 5 (ix)
   0356 E5            [11]  605 	push	hl
   0357 CDr00r00      [17]  606 	call	_e4vm_utils_here_to_wp
   035A F1            [10]  607 	pop	af
                            608 ;e4vm.c:133: __MOVE((CHAR*)"dolist", _str__41, 7);
   035B 21 00 00      [10]  609 	ld	hl, #0
   035E 39            [11]  610 	add	hl, sp
   035F EB            [ 4]  611 	ex	de, hl
   0360 4B            [ 4]  612 	ld	c, e
   0361 42            [ 4]  613 	ld	b, d
   0362 D5            [11]  614 	push	de
   0363 21 07 00      [10]  615 	ld	hl, #0x0007
   0366 E5            [11]  616 	push	hl
   0367 21r3Fr04      [10]  617 	ld	hl, #___str_15
   036A E5            [11]  618 	push	hl
   036B C5            [11]  619 	push	bc
   036C CDr00r00      [17]  620 	call	_memcpy
   036F F1            [10]  621 	pop	af
   0370 F1            [10]  622 	pop	af
   0371 F1            [10]  623 	pop	af
   0372 DD 6E 04      [19]  624 	ld	l, 4 (ix)
   0375 DD 66 05      [19]  625 	ld	h, 5 (ix)
   0378 E5            [11]  626 	push	hl
   0379 CDr00r00      [17]  627 	call	_e4vm_utils_add_op_from_string
   037C F1            [10]  628 	pop	af
   037D F1            [10]  629 	pop	af
                            630 ;e4vm.c:135: __MOVE((CHAR*)"drop", _str__40, 5);
   037E 21 0A 00      [10]  631 	ld	hl, #10
   0381 39            [11]  632 	add	hl, sp
   0382 EB            [ 4]  633 	ex	de, hl
   0383 4B            [ 4]  634 	ld	c, e
   0384 42            [ 4]  635 	ld	b, d
   0385 D5            [11]  636 	push	de
   0386 21 05 00      [10]  637 	ld	hl, #0x0005
   0389 E5            [11]  638 	push	hl
   038A 21r46r04      [10]  639 	ld	hl, #___str_16
   038D E5            [11]  640 	push	hl
   038E C5            [11]  641 	push	bc
   038F CDr00r00      [17]  642 	call	_memcpy
   0392 F1            [10]  643 	pop	af
   0393 F1            [10]  644 	pop	af
   0394 F1            [10]  645 	pop	af
   0395 DD 6E 04      [19]  646 	ld	l, 4 (ix)
   0398 DD 66 05      [19]  647 	ld	h, 5 (ix)
   039B E5            [11]  648 	push	hl
   039C CDr00r00      [17]  649 	call	_e4vm_utils_add_op_from_string
   039F F1            [10]  650 	pop	af
   03A0 F1            [10]  651 	pop	af
                            652 ;e4vm.c:137: __MOVE((CHAR*)"exit", _str__39, 5);
   03A1 21 14 00      [10]  653 	ld	hl, #20
   03A4 39            [11]  654 	add	hl, sp
   03A5 EB            [ 4]  655 	ex	de, hl
   03A6 4B            [ 4]  656 	ld	c, e
   03A7 42            [ 4]  657 	ld	b, d
   03A8 D5            [11]  658 	push	de
   03A9 21 05 00      [10]  659 	ld	hl, #0x0005
   03AC E5            [11]  660 	push	hl
   03AD 21r4Br04      [10]  661 	ld	hl, #___str_17
   03B0 E5            [11]  662 	push	hl
   03B1 C5            [11]  663 	push	bc
   03B2 CDr00r00      [17]  664 	call	_memcpy
   03B5 F1            [10]  665 	pop	af
   03B6 F1            [10]  666 	pop	af
   03B7 F1            [10]  667 	pop	af
   03B8 DD 6E 04      [19]  668 	ld	l, 4 (ix)
   03BB DD 66 05      [19]  669 	ld	h, 5 (ix)
   03BE E5            [11]  670 	push	hl
   03BF CDr00r00      [17]  671 	call	_e4vm_utils_add_op_from_string
   03C2 F1            [10]  672 	pop	af
                            673 ;e4vm.c:139: e4vm_utils_stack_ds_push(v, 1);
   03C3 21 01 00      [10]  674 	ld	hl, #0x0001
   03C6 E3            [19]  675 	ex	(sp),hl
   03C7 DD 6E 04      [19]  676 	ld	l, 4 (ix)
   03CA DD 66 05      [19]  677 	ld	h, 5 (ix)
   03CD E5            [11]  678 	push	hl
   03CE CDr00r00      [17]  679 	call	_e4vm_utils_stack_ds_push
   03D1 F1            [10]  680 	pop	af
                            681 ;e4vm.c:140: e4vm_utils_stack_ds_push(v, 2);
   03D2 21 02 00      [10]  682 	ld	hl, #0x0002
   03D5 E3            [19]  683 	ex	(sp),hl
   03D6 DD 6E 04      [19]  684 	ld	l, 4 (ix)
   03D9 DD 66 05      [19]  685 	ld	h, 5 (ix)
   03DC E5            [11]  686 	push	hl
   03DD CDr00r00      [17]  687 	call	_e4vm_utils_stack_ds_push
   03E0 F1            [10]  688 	pop	af
   03E1 F1            [10]  689 	pop	af
                            690 ;e4vm.c:141: e4vm_core_do_list(v);
   03E2 DD 6E 04      [19]  691 	ld	l, 4 (ix)
   03E5 DD 66 05      [19]  692 	ld	h, 5 (ix)
   03E8 E5            [11]  693 	push	hl
   03E9 CDr00r00      [17]  694 	call	_e4vm_core_do_list
   03EC F1            [10]  695 	pop	af
                            696 ;e4vm.c:142: e4vm_core_do_next(v);
   03ED DD 6E 04      [19]  697 	ld	l, 4 (ix)
   03F0 DD 66 05      [19]  698 	ld	h, 5 (ix)
   03F3 E5            [11]  699 	push	hl
   03F4 CDr00r00      [17]  700 	call	_e4vm_core_do_next
   03F7 F1            [10]  701 	pop	af
                            702 ;e4vm.c:143: if ((*v)->ds[(*v)->ds_p - 1] == 1) {
   03F8 DD 6E 04      [19]  703 	ld	l, 4 (ix)
   03FB DD 66 05      [19]  704 	ld	h, 5 (ix)
   03FE 4E            [ 7]  705 	ld	c, (hl)
   03FF 23            [ 6]  706 	inc	hl
   0400 46            [ 7]  707 	ld	b, (hl)
   0401 21 44 00      [10]  708 	ld	hl, #0x0044
   0404 09            [11]  709 	add	hl, bc
   0405 EB            [ 4]  710 	ex	de, hl
   0406 69            [ 4]  711 	ld	l, c
   0407 60            [ 4]  712 	ld	h, b
   0408 01 86 00      [10]  713 	ld	bc, #0x0086
   040B 09            [11]  714 	add	hl, bc
   040C 7E            [ 7]  715 	ld	a, (hl)
   040D 3D            [ 4]  716 	dec	a
   040E 87            [ 4]  717 	add	a, a
   040F 6F            [ 4]  718 	ld	l, a
   0410 26 00         [ 7]  719 	ld	h, #0x00
   0412 19            [11]  720 	add	hl, de
   0413 4E            [ 7]  721 	ld	c, (hl)
   0414 23            [ 6]  722 	inc	hl
   0415 46            [ 7]  723 	ld	b, (hl)
   0416 79            [ 4]  724 	ld	a, c
   0417 3D            [ 4]  725 	dec	a
   0418 B0            [ 4]  726 	or	a, b
   0419 20 0B         [12]  727 	jr	NZ,00102$
                            728 ;e4vm.c:144: Console_WriteStrLn((CHAR*)" - ok", 6);
   041B 21r50r04      [10]  729 	ld	hl, #___str_18
   041E CDr00r00      [17]  730 	call	_Console_WriteStr_C_COMPACT
   0421 CDr00r00      [17]  731 	call	_Console_WriteLn_COMPACT
   0424 18 09         [12]  732 	jr	00104$
   0426                     733 00102$:
                            734 ;e4vm.c:146: Console_WriteStrLn((CHAR*)" - error", 9);
   0426 21r56r04      [10]  735 	ld	hl, #___str_19
   0429 CDr00r00      [17]  736 	call	_Console_WriteStr_C_COMPACT
   042C CDr00r00      [17]  737 	call	_Console_WriteLn_COMPACT
   042F                     738 00104$:
                            739 ;e4vm.c:148: }
   042F DD F9         [10]  740 	ld	sp, ix
   0431 DD E1         [14]  741 	pop	ix
   0433 C9            [10]  742 	ret
   0434                     743 ___str_14:
   0434 54 65 73 74 20 64   744 	.ascii "Test drop "
        72 6F 70 20
   043E 00                  745 	.db 0x00
   043F                     746 ___str_15:
   043F 64 6F 6C 69 73 74   747 	.ascii "dolist"
   0445 00                  748 	.db 0x00
   0446                     749 ___str_16:
   0446 64 72 6F 70         750 	.ascii "drop"
   044A 00                  751 	.db 0x00
   044B                     752 ___str_17:
   044B 65 78 69 74         753 	.ascii "exit"
   044F 00                  754 	.db 0x00
   0450                     755 ___str_18:
   0450 20 2D 20 6F 6B      756 	.ascii " - ok"
   0455 00                  757 	.db 0x00
   0456                     758 ___str_19:
   0456 20 2D 20 65 72 72   759 	.ascii " - error"
        6F 72
   045E 00                  760 	.db 0x00
                            761 ;e4vm.c:150: static void e4vm_test_swap (e4vm_type_x4thPtr *v)
                            762 ;	---------------------------------
                            763 ; Function e4vm_test_swap
                            764 ; ---------------------------------
   045F                     765 _e4vm_test_swap:
   045F CDr00r00      [17]  766 	call	___sdcc_enter_ix
   0462 21 E2 FF      [10]  767 	ld	hl, #-30
   0465 39            [11]  768 	add	hl, sp
   0466 F9            [ 6]  769 	ld	sp, hl
                            770 ;e4vm.c:155: Console_WriteStr((CHAR*)"Test swap ", 11);
   0467 21r75r05      [10]  771 	ld	hl, #___str_20
   046A CDr00r00      [17]  772 	call	_Console_WriteStr_C_COMPACT
                            773 ;e4vm.c:156: e4vm_utils_init(v);
   046D DD 6E 04      [19]  774 	ld	l, 4 (ix)
   0470 DD 66 05      [19]  775 	ld	h, 5 (ix)
   0473 E5            [11]  776 	push	hl
   0474 CDr00r00      [17]  777 	call	_e4vm_utils_init
   0477 F1            [10]  778 	pop	af
                            779 ;e4vm.c:157: e4vm_core_add_core_words(v);
   0478 DD 6E 04      [19]  780 	ld	l, 4 (ix)
   047B DD 66 05      [19]  781 	ld	h, 5 (ix)
   047E E5            [11]  782 	push	hl
   047F CDr00r00      [17]  783 	call	_e4vm_core_add_core_words
   0482 F1            [10]  784 	pop	af
                            785 ;e4vm.c:158: e4vm_stack_add_core_words(v);
   0483 DD 6E 04      [19]  786 	ld	l, 4 (ix)
   0486 DD 66 05      [19]  787 	ld	h, 5 (ix)
   0489 E5            [11]  788 	push	hl
   048A CDr00r00      [17]  789 	call	_e4vm_stack_add_core_words
   048D F1            [10]  790 	pop	af
                            791 ;e4vm.c:159: e4vm_utils_here_to_wp(v);
   048E DD 6E 04      [19]  792 	ld	l, 4 (ix)
   0491 DD 66 05      [19]  793 	ld	h, 5 (ix)
   0494 E5            [11]  794 	push	hl
   0495 CDr00r00      [17]  795 	call	_e4vm_utils_here_to_wp
   0498 F1            [10]  796 	pop	af
                            797 ;e4vm.c:160: __MOVE((CHAR*)"dolist", _str__106, 7);
   0499 21 00 00      [10]  798 	ld	hl, #0
   049C 39            [11]  799 	add	hl, sp
   049D EB            [ 4]  800 	ex	de, hl
   049E 4B            [ 4]  801 	ld	c, e
   049F 42            [ 4]  802 	ld	b, d
   04A0 D5            [11]  803 	push	de
   04A1 21 07 00      [10]  804 	ld	hl, #0x0007
   04A4 E5            [11]  805 	push	hl
   04A5 21r80r05      [10]  806 	ld	hl, #___str_21
   04A8 E5            [11]  807 	push	hl
   04A9 C5            [11]  808 	push	bc
   04AA CDr00r00      [17]  809 	call	_memcpy
   04AD F1            [10]  810 	pop	af
   04AE F1            [10]  811 	pop	af
   04AF F1            [10]  812 	pop	af
   04B0 DD 6E 04      [19]  813 	ld	l, 4 (ix)
   04B3 DD 66 05      [19]  814 	ld	h, 5 (ix)
   04B6 E5            [11]  815 	push	hl
   04B7 CDr00r00      [17]  816 	call	_e4vm_utils_add_op_from_string
   04BA F1            [10]  817 	pop	af
   04BB F1            [10]  818 	pop	af
                            819 ;e4vm.c:162: __MOVE((CHAR*)"swap", _str__105, 5);
   04BC 21 0A 00      [10]  820 	ld	hl, #10
   04BF 39            [11]  821 	add	hl, sp
   04C0 EB            [ 4]  822 	ex	de, hl
   04C1 4B            [ 4]  823 	ld	c, e
   04C2 42            [ 4]  824 	ld	b, d
   04C3 D5            [11]  825 	push	de
   04C4 21 05 00      [10]  826 	ld	hl, #0x0005
   04C7 E5            [11]  827 	push	hl
   04C8 21r87r05      [10]  828 	ld	hl, #___str_22
   04CB E5            [11]  829 	push	hl
   04CC C5            [11]  830 	push	bc
   04CD CDr00r00      [17]  831 	call	_memcpy
   04D0 F1            [10]  832 	pop	af
   04D1 F1            [10]  833 	pop	af
   04D2 F1            [10]  834 	pop	af
   04D3 DD 6E 04      [19]  835 	ld	l, 4 (ix)
   04D6 DD 66 05      [19]  836 	ld	h, 5 (ix)
   04D9 E5            [11]  837 	push	hl
   04DA CDr00r00      [17]  838 	call	_e4vm_utils_add_op_from_string
   04DD F1            [10]  839 	pop	af
   04DE F1            [10]  840 	pop	af
                            841 ;e4vm.c:164: __MOVE((CHAR*)"exit", _str__104, 5);
   04DF 21 14 00      [10]  842 	ld	hl, #20
   04E2 39            [11]  843 	add	hl, sp
   04E3 EB            [ 4]  844 	ex	de, hl
   04E4 4B            [ 4]  845 	ld	c, e
   04E5 42            [ 4]  846 	ld	b, d
   04E6 D5            [11]  847 	push	de
   04E7 21 05 00      [10]  848 	ld	hl, #0x0005
   04EA E5            [11]  849 	push	hl
   04EB 21r8Cr05      [10]  850 	ld	hl, #___str_23
   04EE E5            [11]  851 	push	hl
   04EF C5            [11]  852 	push	bc
   04F0 CDr00r00      [17]  853 	call	_memcpy
   04F3 F1            [10]  854 	pop	af
   04F4 F1            [10]  855 	pop	af
   04F5 F1            [10]  856 	pop	af
   04F6 DD 6E 04      [19]  857 	ld	l, 4 (ix)
   04F9 DD 66 05      [19]  858 	ld	h, 5 (ix)
   04FC E5            [11]  859 	push	hl
   04FD CDr00r00      [17]  860 	call	_e4vm_utils_add_op_from_string
   0500 F1            [10]  861 	pop	af
                            862 ;e4vm.c:166: e4vm_utils_stack_ds_push(v, 1);
   0501 21 01 00      [10]  863 	ld	hl, #0x0001
   0504 E3            [19]  864 	ex	(sp),hl
   0505 DD 6E 04      [19]  865 	ld	l, 4 (ix)
   0508 DD 66 05      [19]  866 	ld	h, 5 (ix)
   050B E5            [11]  867 	push	hl
   050C CDr00r00      [17]  868 	call	_e4vm_utils_stack_ds_push
   050F F1            [10]  869 	pop	af
                            870 ;e4vm.c:167: e4vm_utils_stack_ds_push(v, 2);
   0510 21 02 00      [10]  871 	ld	hl, #0x0002
   0513 E3            [19]  872 	ex	(sp),hl
   0514 DD 6E 04      [19]  873 	ld	l, 4 (ix)
   0517 DD 66 05      [19]  874 	ld	h, 5 (ix)
   051A E5            [11]  875 	push	hl
   051B CDr00r00      [17]  876 	call	_e4vm_utils_stack_ds_push
   051E F1            [10]  877 	pop	af
   051F F1            [10]  878 	pop	af
                            879 ;e4vm.c:168: e4vm_core_do_list(v);
   0520 DD 6E 04      [19]  880 	ld	l, 4 (ix)
   0523 DD 66 05      [19]  881 	ld	h, 5 (ix)
   0526 E5            [11]  882 	push	hl
   0527 CDr00r00      [17]  883 	call	_e4vm_core_do_list
   052A F1            [10]  884 	pop	af
                            885 ;e4vm.c:169: e4vm_core_do_next(v);
   052B DD 6E 04      [19]  886 	ld	l, 4 (ix)
   052E DD 66 05      [19]  887 	ld	h, 5 (ix)
   0531 E5            [11]  888 	push	hl
   0532 CDr00r00      [17]  889 	call	_e4vm_core_do_next
   0535 F1            [10]  890 	pop	af
                            891 ;e4vm.c:170: if ((*v)->ds[0] == 2 && (*v)->ds[1] == 1) {
   0536 DD 6E 04      [19]  892 	ld	l, 4 (ix)
   0539 DD 66 05      [19]  893 	ld	h, 5 (ix)
   053C 4E            [ 7]  894 	ld	c, (hl)
   053D 23            [ 6]  895 	inc	hl
   053E 46            [ 7]  896 	ld	b, (hl)
   053F 69            [ 4]  897 	ld	l, c
   0540 60            [ 4]  898 	ld	h, b
   0541 11 44 00      [10]  899 	ld	de, #0x0044
   0544 19            [11]  900 	add	hl, de
   0545 5E            [ 7]  901 	ld	e, (hl)
   0546 23            [ 6]  902 	inc	hl
   0547 56            [ 7]  903 	ld	d, (hl)
   0548 7B            [ 4]  904 	ld	a, e
   0549 D6 02         [ 7]  905 	sub	a, #0x02
   054B B2            [ 4]  906 	or	a, d
   054C 20 19         [12]  907 	jr	NZ,00102$
   054E 69            [ 4]  908 	ld	l, c
   054F 60            [ 4]  909 	ld	h, b
   0550 11 46 00      [10]  910 	ld	de, #0x0046
   0553 19            [11]  911 	add	hl, de
   0554 4E            [ 7]  912 	ld	c, (hl)
   0555 23            [ 6]  913 	inc	hl
   0556 46            [ 7]  914 	ld	b, (hl)
   0557 79            [ 4]  915 	ld	a, c
   0558 3D            [ 4]  916 	dec	a
   0559 B0            [ 4]  917 	or	a, b
   055A 20 0B         [12]  918 	jr	NZ,00102$
                            919 ;e4vm.c:171: Console_WriteStrLn((CHAR*)" - ok", 6);
   055C 21r91r05      [10]  920 	ld	hl, #___str_24
   055F CDr00r00      [17]  921 	call	_Console_WriteStr_C_COMPACT
   0562 CDr00r00      [17]  922 	call	_Console_WriteLn_COMPACT
   0565 18 09         [12]  923 	jr	00105$
   0567                     924 00102$:
                            925 ;e4vm.c:173: Console_WriteStrLn((CHAR*)" - error", 9);
   0567 21r97r05      [10]  926 	ld	hl, #___str_25
   056A CDr00r00      [17]  927 	call	_Console_WriteStr_C_COMPACT
   056D CDr00r00      [17]  928 	call	_Console_WriteLn_COMPACT
   0570                     929 00105$:
                            930 ;e4vm.c:175: }
   0570 DD F9         [10]  931 	ld	sp, ix
   0572 DD E1         [14]  932 	pop	ix
   0574 C9            [10]  933 	ret
   0575                     934 ___str_20:
   0575 54 65 73 74 20 73   935 	.ascii "Test swap "
        77 61 70 20
   057F 00                  936 	.db 0x00
   0580                     937 ___str_21:
   0580 64 6F 6C 69 73 74   938 	.ascii "dolist"
   0586 00                  939 	.db 0x00
   0587                     940 ___str_22:
   0587 73 77 61 70         941 	.ascii "swap"
   058B 00                  942 	.db 0x00
   058C                     943 ___str_23:
   058C 65 78 69 74         944 	.ascii "exit"
   0590 00                  945 	.db 0x00
   0591                     946 ___str_24:
   0591 20 2D 20 6F 6B      947 	.ascii " - ok"
   0596 00                  948 	.db 0x00
   0597                     949 ___str_25:
   0597 20 2D 20 65 72 72   950 	.ascii " - error"
        6F 72
   059F 00                  951 	.db 0x00
                            952 ;e4vm.c:177: static void e4vm_test_dup (e4vm_type_x4thPtr *v)
                            953 ;	---------------------------------
                            954 ; Function e4vm_test_dup
                            955 ; ---------------------------------
   05A0                     956 _e4vm_test_dup:
   05A0 CDr00r00      [17]  957 	call	___sdcc_enter_ix
   05A3 21 E0 FF      [10]  958 	ld	hl, #-32
   05A6 39            [11]  959 	add	hl, sp
   05A7 F9            [ 6]  960 	ld	sp, hl
                            961 ;e4vm.c:182: Console_WriteStr((CHAR*)"Test dup ", 10);
   05A8 21rC8r06      [10]  962 	ld	hl, #___str_26
   05AB CDr00r00      [17]  963 	call	_Console_WriteStr_C_COMPACT
                            964 ;e4vm.c:183: e4vm_utils_init(v);
   05AE DD 6E 04      [19]  965 	ld	l, 4 (ix)
   05B1 DD 66 05      [19]  966 	ld	h, 5 (ix)
   05B4 E5            [11]  967 	push	hl
   05B5 CDr00r00      [17]  968 	call	_e4vm_utils_init
   05B8 F1            [10]  969 	pop	af
                            970 ;e4vm.c:184: e4vm_core_add_core_words(v);
   05B9 DD 6E 04      [19]  971 	ld	l, 4 (ix)
   05BC DD 66 05      [19]  972 	ld	h, 5 (ix)
   05BF E5            [11]  973 	push	hl
   05C0 CDr00r00      [17]  974 	call	_e4vm_core_add_core_words
   05C3 F1            [10]  975 	pop	af
                            976 ;e4vm.c:185: e4vm_stack_add_core_words(v);
   05C4 DD 6E 04      [19]  977 	ld	l, 4 (ix)
   05C7 DD 66 05      [19]  978 	ld	h, 5 (ix)
   05CA E5            [11]  979 	push	hl
   05CB CDr00r00      [17]  980 	call	_e4vm_stack_add_core_words
   05CE F1            [10]  981 	pop	af
                            982 ;e4vm.c:186: e4vm_utils_here_to_wp(v);
   05CF DD 6E 04      [19]  983 	ld	l, 4 (ix)
   05D2 DD 66 05      [19]  984 	ld	h, 5 (ix)
   05D5 E5            [11]  985 	push	hl
   05D6 CDr00r00      [17]  986 	call	_e4vm_utils_here_to_wp
   05D9 F1            [10]  987 	pop	af
                            988 ;e4vm.c:187: __MOVE((CHAR*)"dolist", _str__45, 7);
   05DA 21 00 00      [10]  989 	ld	hl, #0
   05DD 39            [11]  990 	add	hl, sp
   05DE EB            [ 4]  991 	ex	de, hl
   05DF 4B            [ 4]  992 	ld	c, e
   05E0 42            [ 4]  993 	ld	b, d
   05E1 D5            [11]  994 	push	de
   05E2 21 07 00      [10]  995 	ld	hl, #0x0007
   05E5 E5            [11]  996 	push	hl
   05E6 21rD2r06      [10]  997 	ld	hl, #___str_27
   05E9 E5            [11]  998 	push	hl
   05EA C5            [11]  999 	push	bc
   05EB CDr00r00      [17] 1000 	call	_memcpy
   05EE F1            [10] 1001 	pop	af
   05EF F1            [10] 1002 	pop	af
   05F0 F1            [10] 1003 	pop	af
   05F1 DD 6E 04      [19] 1004 	ld	l, 4 (ix)
   05F4 DD 66 05      [19] 1005 	ld	h, 5 (ix)
   05F7 E5            [11] 1006 	push	hl
   05F8 CDr00r00      [17] 1007 	call	_e4vm_utils_add_op_from_string
   05FB F1            [10] 1008 	pop	af
   05FC F1            [10] 1009 	pop	af
                           1010 ;e4vm.c:189: __MOVE((CHAR*)"dup", _str__44, 4);
   05FD 21 0A 00      [10] 1011 	ld	hl, #10
   0600 39            [11] 1012 	add	hl, sp
   0601 EB            [ 4] 1013 	ex	de, hl
   0602 4B            [ 4] 1014 	ld	c, e
   0603 42            [ 4] 1015 	ld	b, d
   0604 D5            [11] 1016 	push	de
   0605 21 04 00      [10] 1017 	ld	hl, #0x0004
   0608 E5            [11] 1018 	push	hl
   0609 21rD9r06      [10] 1019 	ld	hl, #___str_28
   060C E5            [11] 1020 	push	hl
   060D C5            [11] 1021 	push	bc
   060E CDr00r00      [17] 1022 	call	_memcpy
   0611 F1            [10] 1023 	pop	af
   0612 F1            [10] 1024 	pop	af
   0613 F1            [10] 1025 	pop	af
   0614 DD 6E 04      [19] 1026 	ld	l, 4 (ix)
   0617 DD 66 05      [19] 1027 	ld	h, 5 (ix)
   061A E5            [11] 1028 	push	hl
   061B CDr00r00      [17] 1029 	call	_e4vm_utils_add_op_from_string
   061E F1            [10] 1030 	pop	af
   061F F1            [10] 1031 	pop	af
                           1032 ;e4vm.c:191: __MOVE((CHAR*)"exit", _str__43, 5);
   0620 21 14 00      [10] 1033 	ld	hl, #20
   0623 39            [11] 1034 	add	hl, sp
   0624 EB            [ 4] 1035 	ex	de, hl
   0625 4B            [ 4] 1036 	ld	c, e
   0626 42            [ 4] 1037 	ld	b, d
   0627 D5            [11] 1038 	push	de
   0628 21 05 00      [10] 1039 	ld	hl, #0x0005
   062B E5            [11] 1040 	push	hl
   062C 21rDDr06      [10] 1041 	ld	hl, #___str_29
   062F E5            [11] 1042 	push	hl
   0630 C5            [11] 1043 	push	bc
   0631 CDr00r00      [17] 1044 	call	_memcpy
   0634 F1            [10] 1045 	pop	af
   0635 F1            [10] 1046 	pop	af
   0636 F1            [10] 1047 	pop	af
   0637 DD 6E 04      [19] 1048 	ld	l, 4 (ix)
   063A DD 66 05      [19] 1049 	ld	h, 5 (ix)
   063D E5            [11] 1050 	push	hl
   063E CDr00r00      [17] 1051 	call	_e4vm_utils_add_op_from_string
   0641 F1            [10] 1052 	pop	af
                           1053 ;e4vm.c:193: e4vm_utils_stack_ds_push(v, 1);
   0642 21 01 00      [10] 1054 	ld	hl, #0x0001
   0645 E3            [19] 1055 	ex	(sp),hl
   0646 DD 6E 04      [19] 1056 	ld	l, 4 (ix)
   0649 DD 66 05      [19] 1057 	ld	h, 5 (ix)
   064C E5            [11] 1058 	push	hl
   064D CDr00r00      [17] 1059 	call	_e4vm_utils_stack_ds_push
   0650 F1            [10] 1060 	pop	af
   0651 F1            [10] 1061 	pop	af
                           1062 ;e4vm.c:194: e4vm_core_do_list(v);
   0652 DD 6E 04      [19] 1063 	ld	l, 4 (ix)
   0655 DD 66 05      [19] 1064 	ld	h, 5 (ix)
   0658 E5            [11] 1065 	push	hl
   0659 CDr00r00      [17] 1066 	call	_e4vm_core_do_list
   065C F1            [10] 1067 	pop	af
                           1068 ;e4vm.c:195: e4vm_core_do_next(v);
   065D DD 6E 04      [19] 1069 	ld	l, 4 (ix)
   0660 DD 66 05      [19] 1070 	ld	h, 5 (ix)
   0663 E5            [11] 1071 	push	hl
   0664 CDr00r00      [17] 1072 	call	_e4vm_core_do_next
   0667 F1            [10] 1073 	pop	af
                           1074 ;e4vm.c:196: if (((*v)->ds[0] == (*v)->ds[1] && (*v)->ds[0] == 1) && (*v)->ds_p == 2) {
   0668 DD 6E 04      [19] 1075 	ld	l, 4 (ix)
   066B DD 66 05      [19] 1076 	ld	h, 5 (ix)
   066E 4E            [ 7] 1077 	ld	c, (hl)
   066F 23            [ 6] 1078 	inc	hl
   0670 46            [ 7] 1079 	ld	b, (hl)
   0671 69            [ 4] 1080 	ld	l, c
   0672 60            [ 4] 1081 	ld	h, b
   0673 59            [ 4] 1082 	ld	e, c
   0674 50            [ 4] 1083 	ld	d, b
   0675 C5            [11] 1084 	push	bc
   0676 01 44 00      [10] 1085 	ld	bc, #0x0044
   0679 09            [11] 1086 	add	hl, bc
   067A C1            [10] 1087 	pop	bc
   067B 7E            [ 7] 1088 	ld	a, (hl)
   067C DD 77 FE      [19] 1089 	ld	-2 (ix), a
   067F 23            [ 6] 1090 	inc	hl
   0680 7E            [ 7] 1091 	ld	a, (hl)
   0681 DD 77 FF      [19] 1092 	ld	-1 (ix), a
   0684 EB            [ 4] 1093 	ex	de,hl
   0685 11 46 00      [10] 1094 	ld	de, #0x0046
   0688 19            [11] 1095 	add	hl, de
   0689 5E            [ 7] 1096 	ld	e, (hl)
   068A 23            [ 6] 1097 	inc	hl
   068B 56            [ 7] 1098 	ld	d, (hl)
   068C DD 6E FE      [19] 1099 	ld	l, -2 (ix)
   068F DD 66 FF      [19] 1100 	ld	h, -1 (ix)
   0692 BF            [ 4] 1101 	cp	a, a
   0693 ED 52         [15] 1102 	sbc	hl, de
   0695 20 23         [12] 1103 	jr	NZ,00102$
   0697 DD 7E FE      [19] 1104 	ld	a, -2 (ix)
   069A 3D            [ 4] 1105 	dec	a
   069B DD B6 FF      [19] 1106 	or	a, -1 (ix)
   069E 20 1A         [12] 1107 	jr	NZ,00102$
   06A0 69            [ 4] 1108 	ld	l, c
   06A1 60            [ 4] 1109 	ld	h, b
   06A2 11 86 00      [10] 1110 	ld	de, #0x0086
   06A5 19            [11] 1111 	add	hl, de
   06A6 4E            [ 7] 1112 	ld	c, (hl)
   06A7 23            [ 6] 1113 	inc	hl
   06A8 46            [ 7] 1114 	ld	b, (hl)
   06A9 79            [ 4] 1115 	ld	a, c
   06AA D6 02         [ 7] 1116 	sub	a, #0x02
   06AC B0            [ 4] 1117 	or	a, b
   06AD 20 0B         [12] 1118 	jr	NZ,00102$
                           1119 ;e4vm.c:197: Console_WriteStrLn((CHAR*)" - ok", 6);
   06AF 21rE2r06      [10] 1120 	ld	hl, #___str_30
   06B2 CDr00r00      [17] 1121 	call	_Console_WriteStr_C_COMPACT
   06B5 CDr00r00      [17] 1122 	call	_Console_WriteLn_COMPACT
   06B8 18 09         [12] 1123 	jr	00106$
   06BA                    1124 00102$:
                           1125 ;e4vm.c:199: Console_WriteStrLn((CHAR*)" - error", 9);
   06BA 21rE8r06      [10] 1126 	ld	hl, #___str_31
   06BD CDr00r00      [17] 1127 	call	_Console_WriteStr_C_COMPACT
   06C0 CDr00r00      [17] 1128 	call	_Console_WriteLn_COMPACT
   06C3                    1129 00106$:
                           1130 ;e4vm.c:201: }
   06C3 DD F9         [10] 1131 	ld	sp, ix
   06C5 DD E1         [14] 1132 	pop	ix
   06C7 C9            [10] 1133 	ret
   06C8                    1134 ___str_26:
   06C8 54 65 73 74 20 64  1135 	.ascii "Test dup "
        75 70 20
   06D1 00                 1136 	.db 0x00
   06D2                    1137 ___str_27:
   06D2 64 6F 6C 69 73 74  1138 	.ascii "dolist"
   06D8 00                 1139 	.db 0x00
   06D9                    1140 ___str_28:
   06D9 64 75 70           1141 	.ascii "dup"
   06DC 00                 1142 	.db 0x00
   06DD                    1143 ___str_29:
   06DD 65 78 69 74        1144 	.ascii "exit"
   06E1 00                 1145 	.db 0x00
   06E2                    1146 ___str_30:
   06E2 20 2D 20 6F 6B     1147 	.ascii " - ok"
   06E7 00                 1148 	.db 0x00
   06E8                    1149 ___str_31:
   06E8 20 2D 20 65 72 72  1150 	.ascii " - error"
        6F 72
   06F0 00                 1151 	.db 0x00
                           1152 ;e4vm.c:203: static void e4vm_test_over (e4vm_type_x4thPtr *v)
                           1153 ;	---------------------------------
                           1154 ; Function e4vm_test_over
                           1155 ; ---------------------------------
   06F1                    1156 _e4vm_test_over:
   06F1 CDr00r00      [17] 1157 	call	___sdcc_enter_ix
   06F4 21 E2 FF      [10] 1158 	ld	hl, #-30
   06F7 39            [11] 1159 	add	hl, sp
   06F8 F9            [ 6] 1160 	ld	sp, hl
                           1161 ;e4vm.c:208: Console_WriteStr((CHAR*)"Test over ", 11);
   06F9 21r24r08      [10] 1162 	ld	hl, #___str_32
   06FC CDr00r00      [17] 1163 	call	_Console_WriteStr_C_COMPACT
                           1164 ;e4vm.c:209: e4vm_utils_init(v);
   06FF DD 6E 04      [19] 1165 	ld	l, 4 (ix)
   0702 DD 66 05      [19] 1166 	ld	h, 5 (ix)
   0705 E5            [11] 1167 	push	hl
   0706 CDr00r00      [17] 1168 	call	_e4vm_utils_init
   0709 F1            [10] 1169 	pop	af
                           1170 ;e4vm.c:210: e4vm_core_add_core_words(v);
   070A DD 6E 04      [19] 1171 	ld	l, 4 (ix)
   070D DD 66 05      [19] 1172 	ld	h, 5 (ix)
   0710 E5            [11] 1173 	push	hl
   0711 CDr00r00      [17] 1174 	call	_e4vm_core_add_core_words
   0714 F1            [10] 1175 	pop	af
                           1176 ;e4vm.c:211: e4vm_stack_add_core_words(v);
   0715 DD 6E 04      [19] 1177 	ld	l, 4 (ix)
   0718 DD 66 05      [19] 1178 	ld	h, 5 (ix)
   071B E5            [11] 1179 	push	hl
   071C CDr00r00      [17] 1180 	call	_e4vm_stack_add_core_words
   071F F1            [10] 1181 	pop	af
                           1182 ;e4vm.c:212: e4vm_utils_here_to_wp(v);
   0720 DD 6E 04      [19] 1183 	ld	l, 4 (ix)
   0723 DD 66 05      [19] 1184 	ld	h, 5 (ix)
   0726 E5            [11] 1185 	push	hl
   0727 CDr00r00      [17] 1186 	call	_e4vm_utils_here_to_wp
   072A F1            [10] 1187 	pop	af
                           1188 ;e4vm.c:213: __MOVE((CHAR*)"dolist", _str__95, 7);
   072B 21 00 00      [10] 1189 	ld	hl, #0
   072E 39            [11] 1190 	add	hl, sp
   072F EB            [ 4] 1191 	ex	de, hl
   0730 4B            [ 4] 1192 	ld	c, e
   0731 42            [ 4] 1193 	ld	b, d
   0732 D5            [11] 1194 	push	de
   0733 21 07 00      [10] 1195 	ld	hl, #0x0007
   0736 E5            [11] 1196 	push	hl
   0737 21r2Fr08      [10] 1197 	ld	hl, #___str_33
   073A E5            [11] 1198 	push	hl
   073B C5            [11] 1199 	push	bc
   073C CDr00r00      [17] 1200 	call	_memcpy
   073F F1            [10] 1201 	pop	af
   0740 F1            [10] 1202 	pop	af
   0741 F1            [10] 1203 	pop	af
   0742 DD 6E 04      [19] 1204 	ld	l, 4 (ix)
   0745 DD 66 05      [19] 1205 	ld	h, 5 (ix)
   0748 E5            [11] 1206 	push	hl
   0749 CDr00r00      [17] 1207 	call	_e4vm_utils_add_op_from_string
   074C F1            [10] 1208 	pop	af
   074D F1            [10] 1209 	pop	af
                           1210 ;e4vm.c:215: __MOVE((CHAR*)"over", _str__94, 5);
   074E 21 0A 00      [10] 1211 	ld	hl, #10
   0751 39            [11] 1212 	add	hl, sp
   0752 EB            [ 4] 1213 	ex	de, hl
   0753 4B            [ 4] 1214 	ld	c, e
   0754 42            [ 4] 1215 	ld	b, d
   0755 D5            [11] 1216 	push	de
   0756 21 05 00      [10] 1217 	ld	hl, #0x0005
   0759 E5            [11] 1218 	push	hl
   075A 21r36r08      [10] 1219 	ld	hl, #___str_34
   075D E5            [11] 1220 	push	hl
   075E C5            [11] 1221 	push	bc
   075F CDr00r00      [17] 1222 	call	_memcpy
   0762 F1            [10] 1223 	pop	af
   0763 F1            [10] 1224 	pop	af
   0764 F1            [10] 1225 	pop	af
   0765 DD 6E 04      [19] 1226 	ld	l, 4 (ix)
   0768 DD 66 05      [19] 1227 	ld	h, 5 (ix)
   076B E5            [11] 1228 	push	hl
   076C CDr00r00      [17] 1229 	call	_e4vm_utils_add_op_from_string
   076F F1            [10] 1230 	pop	af
   0770 F1            [10] 1231 	pop	af
                           1232 ;e4vm.c:217: __MOVE((CHAR*)"exit", _str__93, 5);
   0771 21 14 00      [10] 1233 	ld	hl, #20
   0774 39            [11] 1234 	add	hl, sp
   0775 EB            [ 4] 1235 	ex	de, hl
   0776 4B            [ 4] 1236 	ld	c, e
   0777 42            [ 4] 1237 	ld	b, d
   0778 D5            [11] 1238 	push	de
   0779 21 05 00      [10] 1239 	ld	hl, #0x0005
   077C E5            [11] 1240 	push	hl
   077D 21r3Br08      [10] 1241 	ld	hl, #___str_35
   0780 E5            [11] 1242 	push	hl
   0781 C5            [11] 1243 	push	bc
   0782 CDr00r00      [17] 1244 	call	_memcpy
   0785 F1            [10] 1245 	pop	af
   0786 F1            [10] 1246 	pop	af
   0787 F1            [10] 1247 	pop	af
   0788 DD 6E 04      [19] 1248 	ld	l, 4 (ix)
   078B DD 66 05      [19] 1249 	ld	h, 5 (ix)
   078E E5            [11] 1250 	push	hl
   078F CDr00r00      [17] 1251 	call	_e4vm_utils_add_op_from_string
   0792 F1            [10] 1252 	pop	af
                           1253 ;e4vm.c:219: e4vm_utils_stack_ds_push(v, 1);
   0793 21 01 00      [10] 1254 	ld	hl, #0x0001
   0796 E3            [19] 1255 	ex	(sp),hl
   0797 DD 6E 04      [19] 1256 	ld	l, 4 (ix)
   079A DD 66 05      [19] 1257 	ld	h, 5 (ix)
   079D E5            [11] 1258 	push	hl
   079E CDr00r00      [17] 1259 	call	_e4vm_utils_stack_ds_push
   07A1 F1            [10] 1260 	pop	af
                           1261 ;e4vm.c:220: e4vm_utils_stack_ds_push(v, 2);
   07A2 21 02 00      [10] 1262 	ld	hl, #0x0002
   07A5 E3            [19] 1263 	ex	(sp),hl
   07A6 DD 6E 04      [19] 1264 	ld	l, 4 (ix)
   07A9 DD 66 05      [19] 1265 	ld	h, 5 (ix)
   07AC E5            [11] 1266 	push	hl
   07AD CDr00r00      [17] 1267 	call	_e4vm_utils_stack_ds_push
   07B0 F1            [10] 1268 	pop	af
   07B1 F1            [10] 1269 	pop	af
                           1270 ;e4vm.c:221: e4vm_core_do_list(v);
   07B2 DD 6E 04      [19] 1271 	ld	l, 4 (ix)
   07B5 DD 66 05      [19] 1272 	ld	h, 5 (ix)
   07B8 E5            [11] 1273 	push	hl
   07B9 CDr00r00      [17] 1274 	call	_e4vm_core_do_list
   07BC F1            [10] 1275 	pop	af
                           1276 ;e4vm.c:222: e4vm_core_do_next(v);
   07BD DD 6E 04      [19] 1277 	ld	l, 4 (ix)
   07C0 DD 66 05      [19] 1278 	ld	h, 5 (ix)
   07C3 E5            [11] 1279 	push	hl
   07C4 CDr00r00      [17] 1280 	call	_e4vm_core_do_next
   07C7 F1            [10] 1281 	pop	af
                           1282 ;e4vm.c:223: if ((((*v)->ds[0] == 1 && (*v)->ds[1] == 2) && (*v)->ds[2] == 1) && (*v)->ds_p == 3) {
   07C8 DD 6E 04      [19] 1283 	ld	l, 4 (ix)
   07CB DD 66 05      [19] 1284 	ld	h, 5 (ix)
   07CE 4E            [ 7] 1285 	ld	c, (hl)
   07CF 23            [ 6] 1286 	inc	hl
   07D0 46            [ 7] 1287 	ld	b, (hl)
   07D1 69            [ 4] 1288 	ld	l, c
   07D2 60            [ 4] 1289 	ld	h, b
   07D3 11 44 00      [10] 1290 	ld	de, #0x0044
   07D6 19            [11] 1291 	add	hl, de
   07D7 5E            [ 7] 1292 	ld	e, (hl)
   07D8 23            [ 6] 1293 	inc	hl
   07D9 56            [ 7] 1294 	ld	d, (hl)
   07DA 7B            [ 4] 1295 	ld	a, e
   07DB 3D            [ 4] 1296 	dec	a
   07DC B2            [ 4] 1297 	or	a, d
   07DD 20 37         [12] 1298 	jr	NZ,00102$
   07DF 69            [ 4] 1299 	ld	l, c
   07E0 60            [ 4] 1300 	ld	h, b
   07E1 11 46 00      [10] 1301 	ld	de, #0x0046
   07E4 19            [11] 1302 	add	hl, de
   07E5 5E            [ 7] 1303 	ld	e, (hl)
   07E6 23            [ 6] 1304 	inc	hl
   07E7 56            [ 7] 1305 	ld	d, (hl)
   07E8 7B            [ 4] 1306 	ld	a, e
   07E9 D6 02         [ 7] 1307 	sub	a, #0x02
   07EB B2            [ 4] 1308 	or	a, d
   07EC 20 28         [12] 1309 	jr	NZ,00102$
   07EE 69            [ 4] 1310 	ld	l, c
   07EF 60            [ 4] 1311 	ld	h, b
   07F0 11 48 00      [10] 1312 	ld	de, #0x0048
   07F3 19            [11] 1313 	add	hl, de
   07F4 5E            [ 7] 1314 	ld	e, (hl)
   07F5 23            [ 6] 1315 	inc	hl
   07F6 56            [ 7] 1316 	ld	d, (hl)
   07F7 7B            [ 4] 1317 	ld	a, e
   07F8 3D            [ 4] 1318 	dec	a
   07F9 B2            [ 4] 1319 	or	a, d
   07FA 20 1A         [12] 1320 	jr	NZ,00102$
   07FC 69            [ 4] 1321 	ld	l, c
   07FD 60            [ 4] 1322 	ld	h, b
   07FE 11 86 00      [10] 1323 	ld	de, #0x0086
   0801 19            [11] 1324 	add	hl, de
   0802 4E            [ 7] 1325 	ld	c, (hl)
   0803 23            [ 6] 1326 	inc	hl
   0804 46            [ 7] 1327 	ld	b, (hl)
   0805 79            [ 4] 1328 	ld	a, c
   0806 D6 03         [ 7] 1329 	sub	a, #0x03
   0808 B0            [ 4] 1330 	or	a, b
   0809 20 0B         [12] 1331 	jr	NZ,00102$
                           1332 ;e4vm.c:224: Console_WriteStrLn((CHAR*)" - ok", 6);
   080B 21r40r08      [10] 1333 	ld	hl, #___str_36
   080E CDr00r00      [17] 1334 	call	_Console_WriteStr_C_COMPACT
   0811 CDr00r00      [17] 1335 	call	_Console_WriteLn_COMPACT
   0814 18 09         [12] 1336 	jr	00107$
   0816                    1337 00102$:
                           1338 ;e4vm.c:226: Console_WriteStrLn((CHAR*)" - error", 9);
   0816 21r46r08      [10] 1339 	ld	hl, #___str_37
   0819 CDr00r00      [17] 1340 	call	_Console_WriteStr_C_COMPACT
   081C CDr00r00      [17] 1341 	call	_Console_WriteLn_COMPACT
   081F                    1342 00107$:
                           1343 ;e4vm.c:228: }
   081F DD F9         [10] 1344 	ld	sp, ix
   0821 DD E1         [14] 1345 	pop	ix
   0823 C9            [10] 1346 	ret
   0824                    1347 ___str_32:
   0824 54 65 73 74 20 6F  1348 	.ascii "Test over "
        76 65 72 20
   082E 00                 1349 	.db 0x00
   082F                    1350 ___str_33:
   082F 64 6F 6C 69 73 74  1351 	.ascii "dolist"
   0835 00                 1352 	.db 0x00
   0836                    1353 ___str_34:
   0836 6F 76 65 72        1354 	.ascii "over"
   083A 00                 1355 	.db 0x00
   083B                    1356 ___str_35:
   083B 65 78 69 74        1357 	.ascii "exit"
   083F 00                 1358 	.db 0x00
   0840                    1359 ___str_36:
   0840 20 2D 20 6F 6B     1360 	.ascii " - ok"
   0845 00                 1361 	.db 0x00
   0846                    1362 ___str_37:
   0846 20 2D 20 65 72 72  1363 	.ascii " - error"
        6F 72
   084E 00                 1364 	.db 0x00
                           1365 ;e4vm.c:230: static void e4vm_test_rot (e4vm_type_x4thPtr *v)
                           1366 ;	---------------------------------
                           1367 ; Function e4vm_test_rot
                           1368 ; ---------------------------------
   084F                    1369 _e4vm_test_rot:
   084F CDr00r00      [17] 1370 	call	___sdcc_enter_ix
   0852 21 E2 FF      [10] 1371 	ld	hl, #-30
   0855 39            [11] 1372 	add	hl, sp
   0856 F9            [ 6] 1373 	ld	sp, hl
                           1374 ;e4vm.c:235: Console_WriteStr((CHAR*)"Test rot ", 10);
   0857 21r83r09      [10] 1375 	ld	hl, #___str_38
   085A CDr00r00      [17] 1376 	call	_Console_WriteStr_C_COMPACT
                           1377 ;e4vm.c:236: e4vm_utils_init(v);
   085D DD 6E 04      [19] 1378 	ld	l, 4 (ix)
   0860 DD 66 05      [19] 1379 	ld	h, 5 (ix)
   0863 E5            [11] 1380 	push	hl
   0864 CDr00r00      [17] 1381 	call	_e4vm_utils_init
   0867 F1            [10] 1382 	pop	af
                           1383 ;e4vm.c:237: e4vm_core_add_core_words(v);
   0868 DD 6E 04      [19] 1384 	ld	l, 4 (ix)
   086B DD 66 05      [19] 1385 	ld	h, 5 (ix)
   086E E5            [11] 1386 	push	hl
   086F CDr00r00      [17] 1387 	call	_e4vm_core_add_core_words
   0872 F1            [10] 1388 	pop	af
                           1389 ;e4vm.c:238: e4vm_stack_add_core_words(v);
   0873 DD 6E 04      [19] 1390 	ld	l, 4 (ix)
   0876 DD 66 05      [19] 1391 	ld	h, 5 (ix)
   0879 E5            [11] 1392 	push	hl
   087A CDr00r00      [17] 1393 	call	_e4vm_stack_add_core_words
   087D F1            [10] 1394 	pop	af
                           1395 ;e4vm.c:239: e4vm_utils_here_to_wp(v);
   087E DD 6E 04      [19] 1396 	ld	l, 4 (ix)
   0881 DD 66 05      [19] 1397 	ld	h, 5 (ix)
   0884 E5            [11] 1398 	push	hl
   0885 CDr00r00      [17] 1399 	call	_e4vm_utils_here_to_wp
   0888 F1            [10] 1400 	pop	af
                           1401 ;e4vm.c:240: __MOVE((CHAR*)"dolist", _str__102, 7);
   0889 21 00 00      [10] 1402 	ld	hl, #0
   088C 39            [11] 1403 	add	hl, sp
   088D EB            [ 4] 1404 	ex	de, hl
   088E 4B            [ 4] 1405 	ld	c, e
   088F 42            [ 4] 1406 	ld	b, d
   0890 D5            [11] 1407 	push	de
   0891 21 07 00      [10] 1408 	ld	hl, #0x0007
   0894 E5            [11] 1409 	push	hl
   0895 21r8Dr09      [10] 1410 	ld	hl, #___str_39
   0898 E5            [11] 1411 	push	hl
   0899 C5            [11] 1412 	push	bc
   089A CDr00r00      [17] 1413 	call	_memcpy
   089D F1            [10] 1414 	pop	af
   089E F1            [10] 1415 	pop	af
   089F F1            [10] 1416 	pop	af
   08A0 DD 6E 04      [19] 1417 	ld	l, 4 (ix)
   08A3 DD 66 05      [19] 1418 	ld	h, 5 (ix)
   08A6 E5            [11] 1419 	push	hl
   08A7 CDr00r00      [17] 1420 	call	_e4vm_utils_add_op_from_string
   08AA F1            [10] 1421 	pop	af
   08AB F1            [10] 1422 	pop	af
                           1423 ;e4vm.c:242: __MOVE((CHAR*)"rot", _str__101, 4);
   08AC 21 0A 00      [10] 1424 	ld	hl, #10
   08AF 39            [11] 1425 	add	hl, sp
   08B0 EB            [ 4] 1426 	ex	de, hl
   08B1 4B            [ 4] 1427 	ld	c, e
   08B2 42            [ 4] 1428 	ld	b, d
   08B3 D5            [11] 1429 	push	de
   08B4 21 04 00      [10] 1430 	ld	hl, #0x0004
   08B7 E5            [11] 1431 	push	hl
   08B8 21r94r09      [10] 1432 	ld	hl, #___str_40
   08BB E5            [11] 1433 	push	hl
   08BC C5            [11] 1434 	push	bc
   08BD CDr00r00      [17] 1435 	call	_memcpy
   08C0 F1            [10] 1436 	pop	af
   08C1 F1            [10] 1437 	pop	af
   08C2 F1            [10] 1438 	pop	af
   08C3 DD 6E 04      [19] 1439 	ld	l, 4 (ix)
   08C6 DD 66 05      [19] 1440 	ld	h, 5 (ix)
   08C9 E5            [11] 1441 	push	hl
   08CA CDr00r00      [17] 1442 	call	_e4vm_utils_add_op_from_string
   08CD F1            [10] 1443 	pop	af
   08CE F1            [10] 1444 	pop	af
                           1445 ;e4vm.c:244: __MOVE((CHAR*)"exit", _str__100, 5);
   08CF 21 14 00      [10] 1446 	ld	hl, #20
   08D2 39            [11] 1447 	add	hl, sp
   08D3 EB            [ 4] 1448 	ex	de, hl
   08D4 4B            [ 4] 1449 	ld	c, e
   08D5 42            [ 4] 1450 	ld	b, d
   08D6 D5            [11] 1451 	push	de
   08D7 21 05 00      [10] 1452 	ld	hl, #0x0005
   08DA E5            [11] 1453 	push	hl
   08DB 21r98r09      [10] 1454 	ld	hl, #___str_41
   08DE E5            [11] 1455 	push	hl
   08DF C5            [11] 1456 	push	bc
   08E0 CDr00r00      [17] 1457 	call	_memcpy
   08E3 F1            [10] 1458 	pop	af
   08E4 F1            [10] 1459 	pop	af
   08E5 F1            [10] 1460 	pop	af
   08E6 DD 6E 04      [19] 1461 	ld	l, 4 (ix)
   08E9 DD 66 05      [19] 1462 	ld	h, 5 (ix)
   08EC E5            [11] 1463 	push	hl
   08ED CDr00r00      [17] 1464 	call	_e4vm_utils_add_op_from_string
   08F0 F1            [10] 1465 	pop	af
                           1466 ;e4vm.c:246: e4vm_utils_stack_ds_push(v, 1);
   08F1 21 01 00      [10] 1467 	ld	hl, #0x0001
   08F4 E3            [19] 1468 	ex	(sp),hl
   08F5 DD 6E 04      [19] 1469 	ld	l, 4 (ix)
   08F8 DD 66 05      [19] 1470 	ld	h, 5 (ix)
   08FB E5            [11] 1471 	push	hl
   08FC CDr00r00      [17] 1472 	call	_e4vm_utils_stack_ds_push
   08FF F1            [10] 1473 	pop	af
                           1474 ;e4vm.c:247: e4vm_utils_stack_ds_push(v, 2);
   0900 21 02 00      [10] 1475 	ld	hl, #0x0002
   0903 E3            [19] 1476 	ex	(sp),hl
   0904 DD 6E 04      [19] 1477 	ld	l, 4 (ix)
   0907 DD 66 05      [19] 1478 	ld	h, 5 (ix)
   090A E5            [11] 1479 	push	hl
   090B CDr00r00      [17] 1480 	call	_e4vm_utils_stack_ds_push
   090E F1            [10] 1481 	pop	af
                           1482 ;e4vm.c:248: e4vm_utils_stack_ds_push(v, 3);
   090F 21 03 00      [10] 1483 	ld	hl, #0x0003
   0912 E3            [19] 1484 	ex	(sp),hl
   0913 DD 6E 04      [19] 1485 	ld	l, 4 (ix)
   0916 DD 66 05      [19] 1486 	ld	h, 5 (ix)
   0919 E5            [11] 1487 	push	hl
   091A CDr00r00      [17] 1488 	call	_e4vm_utils_stack_ds_push
   091D F1            [10] 1489 	pop	af
   091E F1            [10] 1490 	pop	af
                           1491 ;e4vm.c:249: e4vm_core_do_list(v);
   091F DD 6E 04      [19] 1492 	ld	l, 4 (ix)
   0922 DD 66 05      [19] 1493 	ld	h, 5 (ix)
   0925 E5            [11] 1494 	push	hl
   0926 CDr00r00      [17] 1495 	call	_e4vm_core_do_list
   0929 F1            [10] 1496 	pop	af
                           1497 ;e4vm.c:250: e4vm_core_do_next(v);
   092A DD 6E 04      [19] 1498 	ld	l, 4 (ix)
   092D DD 66 05      [19] 1499 	ld	h, 5 (ix)
   0930 E5            [11] 1500 	push	hl
   0931 CDr00r00      [17] 1501 	call	_e4vm_core_do_next
   0934 F1            [10] 1502 	pop	af
                           1503 ;e4vm.c:251: if (((*v)->ds[0] == 2 && (*v)->ds[1] == 3) && (*v)->ds[2] == 1) {
   0935 DD 6E 04      [19] 1504 	ld	l, 4 (ix)
   0938 DD 66 05      [19] 1505 	ld	h, 5 (ix)
   093B 4E            [ 7] 1506 	ld	c, (hl)
   093C 23            [ 6] 1507 	inc	hl
   093D 46            [ 7] 1508 	ld	b, (hl)
   093E 69            [ 4] 1509 	ld	l, c
   093F 60            [ 4] 1510 	ld	h, b
   0940 11 44 00      [10] 1511 	ld	de, #0x0044
   0943 19            [11] 1512 	add	hl, de
   0944 5E            [ 7] 1513 	ld	e, (hl)
   0945 23            [ 6] 1514 	inc	hl
   0946 56            [ 7] 1515 	ld	d, (hl)
   0947 7B            [ 4] 1516 	ld	a, e
   0948 D6 02         [ 7] 1517 	sub	a, #0x02
   094A B2            [ 4] 1518 	or	a, d
   094B 20 28         [12] 1519 	jr	NZ,00102$
   094D 69            [ 4] 1520 	ld	l, c
   094E 60            [ 4] 1521 	ld	h, b
   094F 11 46 00      [10] 1522 	ld	de, #0x0046
   0952 19            [11] 1523 	add	hl, de
   0953 5E            [ 7] 1524 	ld	e, (hl)
   0954 23            [ 6] 1525 	inc	hl
   0955 56            [ 7] 1526 	ld	d, (hl)
   0956 7B            [ 4] 1527 	ld	a, e
   0957 D6 03         [ 7] 1528 	sub	a, #0x03
   0959 B2            [ 4] 1529 	or	a, d
   095A 20 19         [12] 1530 	jr	NZ,00102$
   095C 69            [ 4] 1531 	ld	l, c
   095D 60            [ 4] 1532 	ld	h, b
   095E 11 48 00      [10] 1533 	ld	de, #0x0048
   0961 19            [11] 1534 	add	hl, de
   0962 4E            [ 7] 1535 	ld	c, (hl)
   0963 23            [ 6] 1536 	inc	hl
   0964 46            [ 7] 1537 	ld	b, (hl)
   0965 79            [ 4] 1538 	ld	a, c
   0966 3D            [ 4] 1539 	dec	a
   0967 B0            [ 4] 1540 	or	a, b
   0968 20 0B         [12] 1541 	jr	NZ,00102$
                           1542 ;e4vm.c:252: Console_WriteStrLn((CHAR*)" - ok", 6);
   096A 21r9Dr09      [10] 1543 	ld	hl, #___str_42
   096D CDr00r00      [17] 1544 	call	_Console_WriteStr_C_COMPACT
   0970 CDr00r00      [17] 1545 	call	_Console_WriteLn_COMPACT
   0973 18 09         [12] 1546 	jr	00106$
   0975                    1547 00102$:
                           1548 ;e4vm.c:254: Console_WriteStrLn((CHAR*)" - error", 9);
   0975 21rA3r09      [10] 1549 	ld	hl, #___str_43
   0978 CDr00r00      [17] 1550 	call	_Console_WriteStr_C_COMPACT
   097B CDr00r00      [17] 1551 	call	_Console_WriteLn_COMPACT
   097E                    1552 00106$:
                           1553 ;e4vm.c:256: }
   097E DD F9         [10] 1554 	ld	sp, ix
   0980 DD E1         [14] 1555 	pop	ix
   0982 C9            [10] 1556 	ret
   0983                    1557 ___str_38:
   0983 54 65 73 74 20 72  1558 	.ascii "Test rot "
        6F 74 20
   098C 00                 1559 	.db 0x00
   098D                    1560 ___str_39:
   098D 64 6F 6C 69 73 74  1561 	.ascii "dolist"
   0993 00                 1562 	.db 0x00
   0994                    1563 ___str_40:
   0994 72 6F 74           1564 	.ascii "rot"
   0997 00                 1565 	.db 0x00
   0998                    1566 ___str_41:
   0998 65 78 69 74        1567 	.ascii "exit"
   099C 00                 1568 	.db 0x00
   099D                    1569 ___str_42:
   099D 20 2D 20 6F 6B     1570 	.ascii " - ok"
   09A2 00                 1571 	.db 0x00
   09A3                    1572 ___str_43:
   09A3 20 2D 20 65 72 72  1573 	.ascii " - error"
        6F 72
   09AB 00                 1574 	.db 0x00
                           1575 ;e4vm.c:258: static void e4vm_test_nrot (e4vm_type_x4thPtr *v)
                           1576 ;	---------------------------------
                           1577 ; Function e4vm_test_nrot
                           1578 ; ---------------------------------
   09AC                    1579 _e4vm_test_nrot:
   09AC CDr00r00      [17] 1580 	call	___sdcc_enter_ix
   09AF 21 E2 FF      [10] 1581 	ld	hl, #-30
   09B2 39            [11] 1582 	add	hl, sp
   09B3 F9            [ 6] 1583 	ld	sp, hl
                           1584 ;e4vm.c:263: Console_WriteStr((CHAR*)"Test nrot ", 11);
   09B4 21rE0r0A      [10] 1585 	ld	hl, #___str_44
   09B7 CDr00r00      [17] 1586 	call	_Console_WriteStr_C_COMPACT
                           1587 ;e4vm.c:264: e4vm_utils_init(v);
   09BA DD 6E 04      [19] 1588 	ld	l, 4 (ix)
   09BD DD 66 05      [19] 1589 	ld	h, 5 (ix)
   09C0 E5            [11] 1590 	push	hl
   09C1 CDr00r00      [17] 1591 	call	_e4vm_utils_init
   09C4 F1            [10] 1592 	pop	af
                           1593 ;e4vm.c:265: e4vm_core_add_core_words(v);
   09C5 DD 6E 04      [19] 1594 	ld	l, 4 (ix)
   09C8 DD 66 05      [19] 1595 	ld	h, 5 (ix)
   09CB E5            [11] 1596 	push	hl
   09CC CDr00r00      [17] 1597 	call	_e4vm_core_add_core_words
   09CF F1            [10] 1598 	pop	af
                           1599 ;e4vm.c:266: e4vm_stack_add_core_words(v);
   09D0 DD 6E 04      [19] 1600 	ld	l, 4 (ix)
   09D3 DD 66 05      [19] 1601 	ld	h, 5 (ix)
   09D6 E5            [11] 1602 	push	hl
   09D7 CDr00r00      [17] 1603 	call	_e4vm_stack_add_core_words
   09DA F1            [10] 1604 	pop	af
                           1605 ;e4vm.c:267: e4vm_utils_here_to_wp(v);
   09DB DD 6E 04      [19] 1606 	ld	l, 4 (ix)
   09DE DD 66 05      [19] 1607 	ld	h, 5 (ix)
   09E1 E5            [11] 1608 	push	hl
   09E2 CDr00r00      [17] 1609 	call	_e4vm_utils_here_to_wp
   09E5 F1            [10] 1610 	pop	af
                           1611 ;e4vm.c:268: __MOVE((CHAR*)"dolist", _str__87, 7);
   09E6 21 00 00      [10] 1612 	ld	hl, #0
   09E9 39            [11] 1613 	add	hl, sp
   09EA EB            [ 4] 1614 	ex	de, hl
   09EB 4B            [ 4] 1615 	ld	c, e
   09EC 42            [ 4] 1616 	ld	b, d
   09ED D5            [11] 1617 	push	de
   09EE 21 07 00      [10] 1618 	ld	hl, #0x0007
   09F1 E5            [11] 1619 	push	hl
   09F2 21rEBr0A      [10] 1620 	ld	hl, #___str_45
   09F5 E5            [11] 1621 	push	hl
   09F6 C5            [11] 1622 	push	bc
   09F7 CDr00r00      [17] 1623 	call	_memcpy
   09FA F1            [10] 1624 	pop	af
   09FB F1            [10] 1625 	pop	af
   09FC F1            [10] 1626 	pop	af
   09FD DD 6E 04      [19] 1627 	ld	l, 4 (ix)
   0A00 DD 66 05      [19] 1628 	ld	h, 5 (ix)
   0A03 E5            [11] 1629 	push	hl
   0A04 CDr00r00      [17] 1630 	call	_e4vm_utils_add_op_from_string
   0A07 F1            [10] 1631 	pop	af
   0A08 F1            [10] 1632 	pop	af
                           1633 ;e4vm.c:270: __MOVE((CHAR*)"nrot", _str__86, 5);
   0A09 21 0A 00      [10] 1634 	ld	hl, #10
   0A0C 39            [11] 1635 	add	hl, sp
   0A0D EB            [ 4] 1636 	ex	de, hl
   0A0E 4B            [ 4] 1637 	ld	c, e
   0A0F 42            [ 4] 1638 	ld	b, d
   0A10 D5            [11] 1639 	push	de
   0A11 21 05 00      [10] 1640 	ld	hl, #0x0005
   0A14 E5            [11] 1641 	push	hl
   0A15 21rF2r0A      [10] 1642 	ld	hl, #___str_46
   0A18 E5            [11] 1643 	push	hl
   0A19 C5            [11] 1644 	push	bc
   0A1A CDr00r00      [17] 1645 	call	_memcpy
   0A1D F1            [10] 1646 	pop	af
   0A1E F1            [10] 1647 	pop	af
   0A1F F1            [10] 1648 	pop	af
   0A20 DD 6E 04      [19] 1649 	ld	l, 4 (ix)
   0A23 DD 66 05      [19] 1650 	ld	h, 5 (ix)
   0A26 E5            [11] 1651 	push	hl
   0A27 CDr00r00      [17] 1652 	call	_e4vm_utils_add_op_from_string
   0A2A F1            [10] 1653 	pop	af
   0A2B F1            [10] 1654 	pop	af
                           1655 ;e4vm.c:272: __MOVE((CHAR*)"exit", _str__85, 5);
   0A2C 21 14 00      [10] 1656 	ld	hl, #20
   0A2F 39            [11] 1657 	add	hl, sp
   0A30 EB            [ 4] 1658 	ex	de, hl
   0A31 4B            [ 4] 1659 	ld	c, e
   0A32 42            [ 4] 1660 	ld	b, d
   0A33 D5            [11] 1661 	push	de
   0A34 21 05 00      [10] 1662 	ld	hl, #0x0005
   0A37 E5            [11] 1663 	push	hl
   0A38 21rF7r0A      [10] 1664 	ld	hl, #___str_47
   0A3B E5            [11] 1665 	push	hl
   0A3C C5            [11] 1666 	push	bc
   0A3D CDr00r00      [17] 1667 	call	_memcpy
   0A40 F1            [10] 1668 	pop	af
   0A41 F1            [10] 1669 	pop	af
   0A42 F1            [10] 1670 	pop	af
   0A43 DD 6E 04      [19] 1671 	ld	l, 4 (ix)
   0A46 DD 66 05      [19] 1672 	ld	h, 5 (ix)
   0A49 E5            [11] 1673 	push	hl
   0A4A CDr00r00      [17] 1674 	call	_e4vm_utils_add_op_from_string
   0A4D F1            [10] 1675 	pop	af
                           1676 ;e4vm.c:274: e4vm_utils_stack_ds_push(v, 1);
   0A4E 21 01 00      [10] 1677 	ld	hl, #0x0001
   0A51 E3            [19] 1678 	ex	(sp),hl
   0A52 DD 6E 04      [19] 1679 	ld	l, 4 (ix)
   0A55 DD 66 05      [19] 1680 	ld	h, 5 (ix)
   0A58 E5            [11] 1681 	push	hl
   0A59 CDr00r00      [17] 1682 	call	_e4vm_utils_stack_ds_push
   0A5C F1            [10] 1683 	pop	af
                           1684 ;e4vm.c:275: e4vm_utils_stack_ds_push(v, 2);
   0A5D 21 02 00      [10] 1685 	ld	hl, #0x0002
   0A60 E3            [19] 1686 	ex	(sp),hl
   0A61 DD 6E 04      [19] 1687 	ld	l, 4 (ix)
   0A64 DD 66 05      [19] 1688 	ld	h, 5 (ix)
   0A67 E5            [11] 1689 	push	hl
   0A68 CDr00r00      [17] 1690 	call	_e4vm_utils_stack_ds_push
   0A6B F1            [10] 1691 	pop	af
                           1692 ;e4vm.c:276: e4vm_utils_stack_ds_push(v, 3);
   0A6C 21 03 00      [10] 1693 	ld	hl, #0x0003
   0A6F E3            [19] 1694 	ex	(sp),hl
   0A70 DD 6E 04      [19] 1695 	ld	l, 4 (ix)
   0A73 DD 66 05      [19] 1696 	ld	h, 5 (ix)
   0A76 E5            [11] 1697 	push	hl
   0A77 CDr00r00      [17] 1698 	call	_e4vm_utils_stack_ds_push
   0A7A F1            [10] 1699 	pop	af
   0A7B F1            [10] 1700 	pop	af
                           1701 ;e4vm.c:277: e4vm_core_do_list(v);
   0A7C DD 6E 04      [19] 1702 	ld	l, 4 (ix)
   0A7F DD 66 05      [19] 1703 	ld	h, 5 (ix)
   0A82 E5            [11] 1704 	push	hl
   0A83 CDr00r00      [17] 1705 	call	_e4vm_core_do_list
   0A86 F1            [10] 1706 	pop	af
                           1707 ;e4vm.c:278: e4vm_core_do_next(v);
   0A87 DD 6E 04      [19] 1708 	ld	l, 4 (ix)
   0A8A DD 66 05      [19] 1709 	ld	h, 5 (ix)
   0A8D E5            [11] 1710 	push	hl
   0A8E CDr00r00      [17] 1711 	call	_e4vm_core_do_next
   0A91 F1            [10] 1712 	pop	af
                           1713 ;e4vm.c:279: if (((*v)->ds[0] == 3 && (*v)->ds[1] == 1) && (*v)->ds[2] == 2) {
   0A92 DD 6E 04      [19] 1714 	ld	l, 4 (ix)
   0A95 DD 66 05      [19] 1715 	ld	h, 5 (ix)
   0A98 4E            [ 7] 1716 	ld	c, (hl)
   0A99 23            [ 6] 1717 	inc	hl
   0A9A 46            [ 7] 1718 	ld	b, (hl)
   0A9B 69            [ 4] 1719 	ld	l, c
   0A9C 60            [ 4] 1720 	ld	h, b
   0A9D 11 44 00      [10] 1721 	ld	de, #0x0044
   0AA0 19            [11] 1722 	add	hl, de
   0AA1 5E            [ 7] 1723 	ld	e, (hl)
   0AA2 23            [ 6] 1724 	inc	hl
   0AA3 56            [ 7] 1725 	ld	d, (hl)
   0AA4 7B            [ 4] 1726 	ld	a, e
   0AA5 D6 03         [ 7] 1727 	sub	a, #0x03
   0AA7 B2            [ 4] 1728 	or	a, d
   0AA8 20 28         [12] 1729 	jr	NZ,00102$
   0AAA 69            [ 4] 1730 	ld	l, c
   0AAB 60            [ 4] 1731 	ld	h, b
   0AAC 11 46 00      [10] 1732 	ld	de, #0x0046
   0AAF 19            [11] 1733 	add	hl, de
   0AB0 5E            [ 7] 1734 	ld	e, (hl)
   0AB1 23            [ 6] 1735 	inc	hl
   0AB2 56            [ 7] 1736 	ld	d, (hl)
   0AB3 7B            [ 4] 1737 	ld	a, e
   0AB4 3D            [ 4] 1738 	dec	a
   0AB5 B2            [ 4] 1739 	or	a, d
   0AB6 20 1A         [12] 1740 	jr	NZ,00102$
   0AB8 69            [ 4] 1741 	ld	l, c
   0AB9 60            [ 4] 1742 	ld	h, b
   0ABA 11 48 00      [10] 1743 	ld	de, #0x0048
   0ABD 19            [11] 1744 	add	hl, de
   0ABE 4E            [ 7] 1745 	ld	c, (hl)
   0ABF 23            [ 6] 1746 	inc	hl
   0AC0 46            [ 7] 1747 	ld	b, (hl)
   0AC1 79            [ 4] 1748 	ld	a, c
   0AC2 D6 02         [ 7] 1749 	sub	a, #0x02
   0AC4 B0            [ 4] 1750 	or	a, b
   0AC5 20 0B         [12] 1751 	jr	NZ,00102$
                           1752 ;e4vm.c:280: Console_WriteStrLn((CHAR*)" - ok", 6);
   0AC7 21rFCr0A      [10] 1753 	ld	hl, #___str_48
   0ACA CDr00r00      [17] 1754 	call	_Console_WriteStr_C_COMPACT
   0ACD CDr00r00      [17] 1755 	call	_Console_WriteLn_COMPACT
   0AD0 18 09         [12] 1756 	jr	00106$
   0AD2                    1757 00102$:
                           1758 ;e4vm.c:282: Console_WriteStrLn((CHAR*)" - error", 9);
   0AD2 21r02r0B      [10] 1759 	ld	hl, #___str_49
   0AD5 CDr00r00      [17] 1760 	call	_Console_WriteStr_C_COMPACT
   0AD8 CDr00r00      [17] 1761 	call	_Console_WriteLn_COMPACT
   0ADB                    1762 00106$:
                           1763 ;e4vm.c:284: }
   0ADB DD F9         [10] 1764 	ld	sp, ix
   0ADD DD E1         [14] 1765 	pop	ix
   0ADF C9            [10] 1766 	ret
   0AE0                    1767 ___str_44:
   0AE0 54 65 73 74 20 6E  1768 	.ascii "Test nrot "
        72 6F 74 20
   0AEA 00                 1769 	.db 0x00
   0AEB                    1770 ___str_45:
   0AEB 64 6F 6C 69 73 74  1771 	.ascii "dolist"
   0AF1 00                 1772 	.db 0x00
   0AF2                    1773 ___str_46:
   0AF2 6E 72 6F 74        1774 	.ascii "nrot"
   0AF6 00                 1775 	.db 0x00
   0AF7                    1776 ___str_47:
   0AF7 65 78 69 74        1777 	.ascii "exit"
   0AFB 00                 1778 	.db 0x00
   0AFC                    1779 ___str_48:
   0AFC 20 2D 20 6F 6B     1780 	.ascii " - ok"
   0B01 00                 1781 	.db 0x00
   0B02                    1782 ___str_49:
   0B02 20 2D 20 65 72 72  1783 	.ascii " - error"
        6F 72
   0B0A 00                 1784 	.db 0x00
                           1785 ;e4vm.c:286: static void e4vm_test_minus (e4vm_type_x4thPtr *v)
                           1786 ;	---------------------------------
                           1787 ; Function e4vm_test_minus
                           1788 ; ---------------------------------
   0B0B                    1789 _e4vm_test_minus:
   0B0B CDr00r00      [17] 1790 	call	___sdcc_enter_ix
   0B0E 21 D8 FF      [10] 1791 	ld	hl, #-40
   0B11 39            [11] 1792 	add	hl, sp
   0B12 F9            [ 6] 1793 	ld	sp, hl
                           1794 ;e4vm.c:292: Console_WriteStr((CHAR*)"Test math -/+ ", 15);
   0B13 21r44r0C      [10] 1795 	ld	hl, #___str_50
   0B16 CDr00r00      [17] 1796 	call	_Console_WriteStr_C_COMPACT
                           1797 ;e4vm.c:293: e4vm_utils_init(v);
   0B19 DD 6E 04      [19] 1798 	ld	l, 4 (ix)
   0B1C DD 66 05      [19] 1799 	ld	h, 5 (ix)
   0B1F E5            [11] 1800 	push	hl
   0B20 CDr00r00      [17] 1801 	call	_e4vm_utils_init
   0B23 F1            [10] 1802 	pop	af
                           1803 ;e4vm.c:294: e4vm_core_add_core_words(v);
   0B24 DD 6E 04      [19] 1804 	ld	l, 4 (ix)
   0B27 DD 66 05      [19] 1805 	ld	h, 5 (ix)
   0B2A E5            [11] 1806 	push	hl
   0B2B CDr00r00      [17] 1807 	call	_e4vm_core_add_core_words
   0B2E F1            [10] 1808 	pop	af
                           1809 ;e4vm.c:295: e4vm_math_add_core_words(v);
   0B2F DD 6E 04      [19] 1810 	ld	l, 4 (ix)
   0B32 DD 66 05      [19] 1811 	ld	h, 5 (ix)
   0B35 E5            [11] 1812 	push	hl
   0B36 CDr00r00      [17] 1813 	call	_e4vm_math_add_core_words
   0B39 F1            [10] 1814 	pop	af
                           1815 ;e4vm.c:296: e4vm_utils_here_to_wp(v);
   0B3A DD 6E 04      [19] 1816 	ld	l, 4 (ix)
   0B3D DD 66 05      [19] 1817 	ld	h, 5 (ix)
   0B40 E5            [11] 1818 	push	hl
   0B41 CDr00r00      [17] 1819 	call	_e4vm_utils_here_to_wp
   0B44 F1            [10] 1820 	pop	af
                           1821 ;e4vm.c:297: __MOVE((CHAR*)"dolist", _str__75, 7);
   0B45 21 00 00      [10] 1822 	ld	hl, #0
   0B48 39            [11] 1823 	add	hl, sp
   0B49 EB            [ 4] 1824 	ex	de, hl
   0B4A 4B            [ 4] 1825 	ld	c, e
   0B4B 42            [ 4] 1826 	ld	b, d
   0B4C D5            [11] 1827 	push	de
   0B4D 21 07 00      [10] 1828 	ld	hl, #0x0007
   0B50 E5            [11] 1829 	push	hl
   0B51 21r53r0C      [10] 1830 	ld	hl, #___str_51
   0B54 E5            [11] 1831 	push	hl
   0B55 C5            [11] 1832 	push	bc
   0B56 CDr00r00      [17] 1833 	call	_memcpy
   0B59 F1            [10] 1834 	pop	af
   0B5A F1            [10] 1835 	pop	af
   0B5B F1            [10] 1836 	pop	af
   0B5C DD 6E 04      [19] 1837 	ld	l, 4 (ix)
   0B5F DD 66 05      [19] 1838 	ld	h, 5 (ix)
   0B62 E5            [11] 1839 	push	hl
   0B63 CDr00r00      [17] 1840 	call	_e4vm_utils_add_op_from_string
   0B66 F1            [10] 1841 	pop	af
   0B67 F1            [10] 1842 	pop	af
                           1843 ;e4vm.c:299: __MOVE((CHAR*)"-", _str__74, 2);
   0B68 21 0A 00      [10] 1844 	ld	hl, #10
   0B6B 39            [11] 1845 	add	hl, sp
   0B6C EB            [ 4] 1846 	ex	de, hl
   0B6D 4B            [ 4] 1847 	ld	c, e
   0B6E 42            [ 4] 1848 	ld	b, d
   0B6F D5            [11] 1849 	push	de
   0B70 21 02 00      [10] 1850 	ld	hl, #0x0002
   0B73 E5            [11] 1851 	push	hl
   0B74 21r5Ar0C      [10] 1852 	ld	hl, #___str_52
   0B77 E5            [11] 1853 	push	hl
   0B78 C5            [11] 1854 	push	bc
   0B79 CDr00r00      [17] 1855 	call	_memcpy
   0B7C F1            [10] 1856 	pop	af
   0B7D F1            [10] 1857 	pop	af
   0B7E F1            [10] 1858 	pop	af
   0B7F DD 6E 04      [19] 1859 	ld	l, 4 (ix)
   0B82 DD 66 05      [19] 1860 	ld	h, 5 (ix)
   0B85 E5            [11] 1861 	push	hl
   0B86 CDr00r00      [17] 1862 	call	_e4vm_utils_add_op_from_string
   0B89 F1            [10] 1863 	pop	af
   0B8A F1            [10] 1864 	pop	af
                           1865 ;e4vm.c:301: __MOVE((CHAR*)"+", _str__73, 2);
   0B8B 21 14 00      [10] 1866 	ld	hl, #20
   0B8E 39            [11] 1867 	add	hl, sp
   0B8F EB            [ 4] 1868 	ex	de, hl
   0B90 4B            [ 4] 1869 	ld	c, e
   0B91 42            [ 4] 1870 	ld	b, d
   0B92 D5            [11] 1871 	push	de
   0B93 21 02 00      [10] 1872 	ld	hl, #0x0002
   0B96 E5            [11] 1873 	push	hl
   0B97 21r5Cr0C      [10] 1874 	ld	hl, #___str_53
   0B9A E5            [11] 1875 	push	hl
   0B9B C5            [11] 1876 	push	bc
   0B9C CDr00r00      [17] 1877 	call	_memcpy
   0B9F F1            [10] 1878 	pop	af
   0BA0 F1            [10] 1879 	pop	af
   0BA1 F1            [10] 1880 	pop	af
   0BA2 DD 6E 04      [19] 1881 	ld	l, 4 (ix)
   0BA5 DD 66 05      [19] 1882 	ld	h, 5 (ix)
   0BA8 E5            [11] 1883 	push	hl
   0BA9 CDr00r00      [17] 1884 	call	_e4vm_utils_add_op_from_string
   0BAC F1            [10] 1885 	pop	af
   0BAD F1            [10] 1886 	pop	af
                           1887 ;e4vm.c:303: __MOVE((CHAR*)"exit", _str__72, 5);
   0BAE 21 1E 00      [10] 1888 	ld	hl, #30
   0BB1 39            [11] 1889 	add	hl, sp
   0BB2 EB            [ 4] 1890 	ex	de, hl
   0BB3 4B            [ 4] 1891 	ld	c, e
   0BB4 42            [ 4] 1892 	ld	b, d
   0BB5 D5            [11] 1893 	push	de
   0BB6 21 05 00      [10] 1894 	ld	hl, #0x0005
   0BB9 E5            [11] 1895 	push	hl
   0BBA 21r5Er0C      [10] 1896 	ld	hl, #___str_54
   0BBD E5            [11] 1897 	push	hl
   0BBE C5            [11] 1898 	push	bc
   0BBF CDr00r00      [17] 1899 	call	_memcpy
   0BC2 F1            [10] 1900 	pop	af
   0BC3 F1            [10] 1901 	pop	af
   0BC4 F1            [10] 1902 	pop	af
   0BC5 DD 6E 04      [19] 1903 	ld	l, 4 (ix)
   0BC8 DD 66 05      [19] 1904 	ld	h, 5 (ix)
   0BCB E5            [11] 1905 	push	hl
   0BCC CDr00r00      [17] 1906 	call	_e4vm_utils_add_op_from_string
   0BCF F1            [10] 1907 	pop	af
                           1908 ;e4vm.c:305: e4vm_utils_stack_ds_push(v, 1);
   0BD0 21 01 00      [10] 1909 	ld	hl, #0x0001
   0BD3 E3            [19] 1910 	ex	(sp),hl
   0BD4 DD 6E 04      [19] 1911 	ld	l, 4 (ix)
   0BD7 DD 66 05      [19] 1912 	ld	h, 5 (ix)
   0BDA E5            [11] 1913 	push	hl
   0BDB CDr00r00      [17] 1914 	call	_e4vm_utils_stack_ds_push
   0BDE F1            [10] 1915 	pop	af
                           1916 ;e4vm.c:306: e4vm_utils_stack_ds_push(v, 20);
   0BDF 21 14 00      [10] 1917 	ld	hl, #0x0014
   0BE2 E3            [19] 1918 	ex	(sp),hl
   0BE3 DD 6E 04      [19] 1919 	ld	l, 4 (ix)
   0BE6 DD 66 05      [19] 1920 	ld	h, 5 (ix)
   0BE9 E5            [11] 1921 	push	hl
   0BEA CDr00r00      [17] 1922 	call	_e4vm_utils_stack_ds_push
   0BED F1            [10] 1923 	pop	af
                           1924 ;e4vm.c:307: e4vm_utils_stack_ds_push(v, 3);
   0BEE 21 03 00      [10] 1925 	ld	hl, #0x0003
   0BF1 E3            [19] 1926 	ex	(sp),hl
   0BF2 DD 6E 04      [19] 1927 	ld	l, 4 (ix)
   0BF5 DD 66 05      [19] 1928 	ld	h, 5 (ix)
   0BF8 E5            [11] 1929 	push	hl
   0BF9 CDr00r00      [17] 1930 	call	_e4vm_utils_stack_ds_push
   0BFC F1            [10] 1931 	pop	af
   0BFD F1            [10] 1932 	pop	af
                           1933 ;e4vm.c:308: e4vm_core_do_list(v);
   0BFE DD 6E 04      [19] 1934 	ld	l, 4 (ix)
   0C01 DD 66 05      [19] 1935 	ld	h, 5 (ix)
   0C04 E5            [11] 1936 	push	hl
   0C05 CDr00r00      [17] 1937 	call	_e4vm_core_do_list
   0C08 F1            [10] 1938 	pop	af
                           1939 ;e4vm.c:309: e4vm_core_do_next(v);
   0C09 DD 6E 04      [19] 1940 	ld	l, 4 (ix)
   0C0C DD 66 05      [19] 1941 	ld	h, 5 (ix)
   0C0F E5            [11] 1942 	push	hl
   0C10 CDr00r00      [17] 1943 	call	_e4vm_core_do_next
   0C13 F1            [10] 1944 	pop	af
                           1945 ;e4vm.c:310: if ((*v)->ds[0] == 18) {
   0C14 DD 6E 04      [19] 1946 	ld	l, 4 (ix)
   0C17 DD 66 05      [19] 1947 	ld	h, 5 (ix)
   0C1A 7E            [ 7] 1948 	ld	a, (hl)
   0C1B 23            [ 6] 1949 	inc	hl
   0C1C 66            [ 7] 1950 	ld	h, (hl)
   0C1D 6F            [ 4] 1951 	ld	l, a
   0C1E 11 44 00      [10] 1952 	ld	de, #0x0044
   0C21 19            [11] 1953 	add	hl, de
   0C22 4E            [ 7] 1954 	ld	c, (hl)
   0C23 23            [ 6] 1955 	inc	hl
   0C24 46            [ 7] 1956 	ld	b, (hl)
   0C25 79            [ 4] 1957 	ld	a, c
   0C26 D6 12         [ 7] 1958 	sub	a, #0x12
   0C28 B0            [ 4] 1959 	or	a, b
   0C29 20 0B         [12] 1960 	jr	NZ,00102$
                           1961 ;e4vm.c:311: Console_WriteStrLn((CHAR*)" - ok", 6);
   0C2B 21r63r0C      [10] 1962 	ld	hl, #___str_55
   0C2E CDr00r00      [17] 1963 	call	_Console_WriteStr_C_COMPACT
   0C31 CDr00r00      [17] 1964 	call	_Console_WriteLn_COMPACT
   0C34 18 09         [12] 1965 	jr	00104$
   0C36                    1966 00102$:
                           1967 ;e4vm.c:313: Console_WriteStrLn((CHAR*)" - error", 9);
   0C36 21r69r0C      [10] 1968 	ld	hl, #___str_56
   0C39 CDr00r00      [17] 1969 	call	_Console_WriteStr_C_COMPACT
   0C3C CDr00r00      [17] 1970 	call	_Console_WriteLn_COMPACT
   0C3F                    1971 00104$:
                           1972 ;e4vm.c:315: }
   0C3F DD F9         [10] 1973 	ld	sp, ix
   0C41 DD E1         [14] 1974 	pop	ix
   0C43 C9            [10] 1975 	ret
   0C44                    1976 ___str_50:
   0C44 54 65 73 74 20 6D  1977 	.ascii "Test math -/+ "
        61 74 68 20 2D 2F
        2B 20
   0C52 00                 1978 	.db 0x00
   0C53                    1979 ___str_51:
   0C53 64 6F 6C 69 73 74  1980 	.ascii "dolist"
   0C59 00                 1981 	.db 0x00
   0C5A                    1982 ___str_52:
   0C5A 2D                 1983 	.ascii "-"
   0C5B 00                 1984 	.db 0x00
   0C5C                    1985 ___str_53:
   0C5C 2B                 1986 	.ascii "+"
   0C5D 00                 1987 	.db 0x00
   0C5E                    1988 ___str_54:
   0C5E 65 78 69 74        1989 	.ascii "exit"
   0C62 00                 1990 	.db 0x00
   0C63                    1991 ___str_55:
   0C63 20 2D 20 6F 6B     1992 	.ascii " - ok"
   0C68 00                 1993 	.db 0x00
   0C69                    1994 ___str_56:
   0C69 20 2D 20 65 72 72  1995 	.ascii " - error"
        6F 72
   0C71 00                 1996 	.db 0x00
                           1997 ;e4vm.c:317: static void e4vm_test_mod (e4vm_type_x4thPtr *v)
                           1998 ;	---------------------------------
                           1999 ; Function e4vm_test_mod
                           2000 ; ---------------------------------
   0C72                    2001 _e4vm_test_mod:
   0C72 CDr00r00      [17] 2002 	call	___sdcc_enter_ix
   0C75 21 E2 FF      [10] 2003 	ld	hl, #-30
   0C78 39            [11] 2004 	add	hl, sp
   0C79 F9            [ 6] 2005 	ld	sp, hl
                           2006 ;e4vm.c:322: Console_WriteStr((CHAR*)"Test mod ", 10);
   0C7A 21r85r0D      [10] 2007 	ld	hl, #___str_57
   0C7D CDr00r00      [17] 2008 	call	_Console_WriteStr_C_COMPACT
                           2009 ;e4vm.c:323: e4vm_utils_init(v);
   0C80 DD 6E 04      [19] 2010 	ld	l, 4 (ix)
   0C83 DD 66 05      [19] 2011 	ld	h, 5 (ix)
   0C86 E5            [11] 2012 	push	hl
   0C87 CDr00r00      [17] 2013 	call	_e4vm_utils_init
   0C8A F1            [10] 2014 	pop	af
                           2015 ;e4vm.c:324: e4vm_core_add_core_words(v);
   0C8B DD 6E 04      [19] 2016 	ld	l, 4 (ix)
   0C8E DD 66 05      [19] 2017 	ld	h, 5 (ix)
   0C91 E5            [11] 2018 	push	hl
   0C92 CDr00r00      [17] 2019 	call	_e4vm_core_add_core_words
   0C95 F1            [10] 2020 	pop	af
                           2021 ;e4vm.c:325: e4vm_math_add_core_words(v);
   0C96 DD 6E 04      [19] 2022 	ld	l, 4 (ix)
   0C99 DD 66 05      [19] 2023 	ld	h, 5 (ix)
   0C9C E5            [11] 2024 	push	hl
   0C9D CDr00r00      [17] 2025 	call	_e4vm_math_add_core_words
   0CA0 F1            [10] 2026 	pop	af
                           2027 ;e4vm.c:326: e4vm_utils_here_to_wp(v);
   0CA1 DD 6E 04      [19] 2028 	ld	l, 4 (ix)
   0CA4 DD 66 05      [19] 2029 	ld	h, 5 (ix)
   0CA7 E5            [11] 2030 	push	hl
   0CA8 CDr00r00      [17] 2031 	call	_e4vm_utils_here_to_wp
   0CAB F1            [10] 2032 	pop	af
                           2033 ;e4vm.c:327: __MOVE((CHAR*)"dolist", _str__79, 7);
   0CAC 21 00 00      [10] 2034 	ld	hl, #0
   0CAF 39            [11] 2035 	add	hl, sp
   0CB0 EB            [ 4] 2036 	ex	de, hl
   0CB1 4B            [ 4] 2037 	ld	c, e
   0CB2 42            [ 4] 2038 	ld	b, d
   0CB3 D5            [11] 2039 	push	de
   0CB4 21 07 00      [10] 2040 	ld	hl, #0x0007
   0CB7 E5            [11] 2041 	push	hl
   0CB8 21r8Fr0D      [10] 2042 	ld	hl, #___str_58
   0CBB E5            [11] 2043 	push	hl
   0CBC C5            [11] 2044 	push	bc
   0CBD CDr00r00      [17] 2045 	call	_memcpy
   0CC0 F1            [10] 2046 	pop	af
   0CC1 F1            [10] 2047 	pop	af
   0CC2 F1            [10] 2048 	pop	af
   0CC3 DD 6E 04      [19] 2049 	ld	l, 4 (ix)
   0CC6 DD 66 05      [19] 2050 	ld	h, 5 (ix)
   0CC9 E5            [11] 2051 	push	hl
   0CCA CDr00r00      [17] 2052 	call	_e4vm_utils_add_op_from_string
   0CCD F1            [10] 2053 	pop	af
   0CCE F1            [10] 2054 	pop	af
                           2055 ;e4vm.c:329: __MOVE((CHAR*)"mod", _str__78, 4);
   0CCF 21 0A 00      [10] 2056 	ld	hl, #10
   0CD2 39            [11] 2057 	add	hl, sp
   0CD3 EB            [ 4] 2058 	ex	de, hl
   0CD4 4B            [ 4] 2059 	ld	c, e
   0CD5 42            [ 4] 2060 	ld	b, d
   0CD6 D5            [11] 2061 	push	de
   0CD7 21 04 00      [10] 2062 	ld	hl, #0x0004
   0CDA E5            [11] 2063 	push	hl
   0CDB 21r96r0D      [10] 2064 	ld	hl, #___str_59
   0CDE E5            [11] 2065 	push	hl
   0CDF C5            [11] 2066 	push	bc
   0CE0 CDr00r00      [17] 2067 	call	_memcpy
   0CE3 F1            [10] 2068 	pop	af
   0CE4 F1            [10] 2069 	pop	af
   0CE5 F1            [10] 2070 	pop	af
   0CE6 DD 6E 04      [19] 2071 	ld	l, 4 (ix)
   0CE9 DD 66 05      [19] 2072 	ld	h, 5 (ix)
   0CEC E5            [11] 2073 	push	hl
   0CED CDr00r00      [17] 2074 	call	_e4vm_utils_add_op_from_string
   0CF0 F1            [10] 2075 	pop	af
   0CF1 F1            [10] 2076 	pop	af
                           2077 ;e4vm.c:331: __MOVE((CHAR*)"exit", _str__77, 5);
   0CF2 21 14 00      [10] 2078 	ld	hl, #20
   0CF5 39            [11] 2079 	add	hl, sp
   0CF6 EB            [ 4] 2080 	ex	de, hl
   0CF7 4B            [ 4] 2081 	ld	c, e
   0CF8 42            [ 4] 2082 	ld	b, d
   0CF9 D5            [11] 2083 	push	de
   0CFA 21 05 00      [10] 2084 	ld	hl, #0x0005
   0CFD E5            [11] 2085 	push	hl
   0CFE 21r9Ar0D      [10] 2086 	ld	hl, #___str_60
   0D01 E5            [11] 2087 	push	hl
   0D02 C5            [11] 2088 	push	bc
   0D03 CDr00r00      [17] 2089 	call	_memcpy
   0D06 F1            [10] 2090 	pop	af
   0D07 F1            [10] 2091 	pop	af
   0D08 F1            [10] 2092 	pop	af
   0D09 DD 6E 04      [19] 2093 	ld	l, 4 (ix)
   0D0C DD 66 05      [19] 2094 	ld	h, 5 (ix)
   0D0F E5            [11] 2095 	push	hl
   0D10 CDr00r00      [17] 2096 	call	_e4vm_utils_add_op_from_string
   0D13 F1            [10] 2097 	pop	af
                           2098 ;e4vm.c:333: e4vm_utils_stack_ds_push(v, 10);
   0D14 21 0A 00      [10] 2099 	ld	hl, #0x000a
   0D17 E3            [19] 2100 	ex	(sp),hl
   0D18 DD 6E 04      [19] 2101 	ld	l, 4 (ix)
   0D1B DD 66 05      [19] 2102 	ld	h, 5 (ix)
   0D1E E5            [11] 2103 	push	hl
   0D1F CDr00r00      [17] 2104 	call	_e4vm_utils_stack_ds_push
   0D22 F1            [10] 2105 	pop	af
                           2106 ;e4vm.c:334: e4vm_utils_stack_ds_push(v, 3);
   0D23 21 03 00      [10] 2107 	ld	hl, #0x0003
   0D26 E3            [19] 2108 	ex	(sp),hl
   0D27 DD 6E 04      [19] 2109 	ld	l, 4 (ix)
   0D2A DD 66 05      [19] 2110 	ld	h, 5 (ix)
   0D2D E5            [11] 2111 	push	hl
   0D2E CDr00r00      [17] 2112 	call	_e4vm_utils_stack_ds_push
   0D31 F1            [10] 2113 	pop	af
   0D32 F1            [10] 2114 	pop	af
                           2115 ;e4vm.c:335: e4vm_core_do_list(v);
   0D33 DD 6E 04      [19] 2116 	ld	l, 4 (ix)
   0D36 DD 66 05      [19] 2117 	ld	h, 5 (ix)
   0D39 E5            [11] 2118 	push	hl
   0D3A CDr00r00      [17] 2119 	call	_e4vm_core_do_list
   0D3D F1            [10] 2120 	pop	af
                           2121 ;e4vm.c:336: e4vm_core_do_next(v);
   0D3E DD 6E 04      [19] 2122 	ld	l, 4 (ix)
   0D41 DD 66 05      [19] 2123 	ld	h, 5 (ix)
   0D44 E5            [11] 2124 	push	hl
   0D45 CDr00r00      [17] 2125 	call	_e4vm_core_do_next
   0D48 F1            [10] 2126 	pop	af
                           2127 ;e4vm.c:337: if ((*v)->ds[(*v)->ds_p - 1] == 1) {
   0D49 DD 6E 04      [19] 2128 	ld	l, 4 (ix)
   0D4C DD 66 05      [19] 2129 	ld	h, 5 (ix)
   0D4F 4E            [ 7] 2130 	ld	c, (hl)
   0D50 23            [ 6] 2131 	inc	hl
   0D51 46            [ 7] 2132 	ld	b, (hl)
   0D52 21 44 00      [10] 2133 	ld	hl, #0x0044
   0D55 09            [11] 2134 	add	hl, bc
   0D56 EB            [ 4] 2135 	ex	de, hl
   0D57 69            [ 4] 2136 	ld	l, c
   0D58 60            [ 4] 2137 	ld	h, b
   0D59 01 86 00      [10] 2138 	ld	bc, #0x0086
   0D5C 09            [11] 2139 	add	hl, bc
   0D5D 7E            [ 7] 2140 	ld	a, (hl)
   0D5E 3D            [ 4] 2141 	dec	a
   0D5F 87            [ 4] 2142 	add	a, a
   0D60 6F            [ 4] 2143 	ld	l, a
   0D61 26 00         [ 7] 2144 	ld	h, #0x00
   0D63 19            [11] 2145 	add	hl, de
   0D64 4E            [ 7] 2146 	ld	c, (hl)
   0D65 23            [ 6] 2147 	inc	hl
   0D66 46            [ 7] 2148 	ld	b, (hl)
   0D67 79            [ 4] 2149 	ld	a, c
   0D68 3D            [ 4] 2150 	dec	a
   0D69 B0            [ 4] 2151 	or	a, b
   0D6A 20 0B         [12] 2152 	jr	NZ,00102$
                           2153 ;e4vm.c:338: Console_WriteStrLn((CHAR*)" - ok", 6);
   0D6C 21r9Fr0D      [10] 2154 	ld	hl, #___str_61
   0D6F CDr00r00      [17] 2155 	call	_Console_WriteStr_C_COMPACT
   0D72 CDr00r00      [17] 2156 	call	_Console_WriteLn_COMPACT
   0D75 18 09         [12] 2157 	jr	00104$
   0D77                    2158 00102$:
                           2159 ;e4vm.c:340: Console_WriteStrLn((CHAR*)" - error", 9);
   0D77 21rA5r0D      [10] 2160 	ld	hl, #___str_62
   0D7A CDr00r00      [17] 2161 	call	_Console_WriteStr_C_COMPACT
   0D7D CDr00r00      [17] 2162 	call	_Console_WriteLn_COMPACT
   0D80                    2163 00104$:
                           2164 ;e4vm.c:342: }
   0D80 DD F9         [10] 2165 	ld	sp, ix
   0D82 DD E1         [14] 2166 	pop	ix
   0D84 C9            [10] 2167 	ret
   0D85                    2168 ___str_57:
   0D85 54 65 73 74 20 6D  2169 	.ascii "Test mod "
        6F 64 20
   0D8E 00                 2170 	.db 0x00
   0D8F                    2171 ___str_58:
   0D8F 64 6F 6C 69 73 74  2172 	.ascii "dolist"
   0D95 00                 2173 	.db 0x00
   0D96                    2174 ___str_59:
   0D96 6D 6F 64           2175 	.ascii "mod"
   0D99 00                 2176 	.db 0x00
   0D9A                    2177 ___str_60:
   0D9A 65 78 69 74        2178 	.ascii "exit"
   0D9E 00                 2179 	.db 0x00
   0D9F                    2180 ___str_61:
   0D9F 20 2D 20 6F 6B     2181 	.ascii " - ok"
   0DA4 00                 2182 	.db 0x00
   0DA5                    2183 ___str_62:
   0DA5 20 2D 20 65 72 72  2184 	.ascii " - error"
        6F 72
   0DAD 00                 2185 	.db 0x00
                           2186 ;e4vm.c:344: static void e4vm_test_devide (e4vm_type_x4thPtr *v)
                           2187 ;	---------------------------------
                           2188 ; Function e4vm_test_devide
                           2189 ; ---------------------------------
   0DAE                    2190 _e4vm_test_devide:
   0DAE CDr00r00      [17] 2191 	call	___sdcc_enter_ix
   0DB1 21 D8 FF      [10] 2192 	ld	hl, #-40
   0DB4 39            [11] 2193 	add	hl, sp
   0DB5 F9            [ 6] 2194 	ld	sp, hl
                           2195 ;e4vm.c:350: Console_WriteStr((CHAR*)"Test math (/, *) ", 18);
   0DB6 21rE7r0E      [10] 2196 	ld	hl, #___str_63
   0DB9 CDr00r00      [17] 2197 	call	_Console_WriteStr_C_COMPACT
                           2198 ;e4vm.c:351: e4vm_utils_init(v);
   0DBC DD 6E 04      [19] 2199 	ld	l, 4 (ix)
   0DBF DD 66 05      [19] 2200 	ld	h, 5 (ix)
   0DC2 E5            [11] 2201 	push	hl
   0DC3 CDr00r00      [17] 2202 	call	_e4vm_utils_init
   0DC6 F1            [10] 2203 	pop	af
                           2204 ;e4vm.c:352: e4vm_core_add_core_words(v);
   0DC7 DD 6E 04      [19] 2205 	ld	l, 4 (ix)
   0DCA DD 66 05      [19] 2206 	ld	h, 5 (ix)
   0DCD E5            [11] 2207 	push	hl
   0DCE CDr00r00      [17] 2208 	call	_e4vm_core_add_core_words
   0DD1 F1            [10] 2209 	pop	af
                           2210 ;e4vm.c:353: e4vm_math_add_core_words(v);
   0DD2 DD 6E 04      [19] 2211 	ld	l, 4 (ix)
   0DD5 DD 66 05      [19] 2212 	ld	h, 5 (ix)
   0DD8 E5            [11] 2213 	push	hl
   0DD9 CDr00r00      [17] 2214 	call	_e4vm_math_add_core_words
   0DDC F1            [10] 2215 	pop	af
                           2216 ;e4vm.c:354: e4vm_utils_here_to_wp(v);
   0DDD DD 6E 04      [19] 2217 	ld	l, 4 (ix)
   0DE0 DD 66 05      [19] 2218 	ld	h, 5 (ix)
   0DE3 E5            [11] 2219 	push	hl
   0DE4 CDr00r00      [17] 2220 	call	_e4vm_utils_here_to_wp
   0DE7 F1            [10] 2221 	pop	af
                           2222 ;e4vm.c:355: __MOVE((CHAR*)"dolist", _str__33, 7);
   0DE8 21 00 00      [10] 2223 	ld	hl, #0
   0DEB 39            [11] 2224 	add	hl, sp
   0DEC EB            [ 4] 2225 	ex	de, hl
   0DED 4B            [ 4] 2226 	ld	c, e
   0DEE 42            [ 4] 2227 	ld	b, d
   0DEF D5            [11] 2228 	push	de
   0DF0 21 07 00      [10] 2229 	ld	hl, #0x0007
   0DF3 E5            [11] 2230 	push	hl
   0DF4 21rF9r0E      [10] 2231 	ld	hl, #___str_64
   0DF7 E5            [11] 2232 	push	hl
   0DF8 C5            [11] 2233 	push	bc
   0DF9 CDr00r00      [17] 2234 	call	_memcpy
   0DFC F1            [10] 2235 	pop	af
   0DFD F1            [10] 2236 	pop	af
   0DFE F1            [10] 2237 	pop	af
   0DFF DD 6E 04      [19] 2238 	ld	l, 4 (ix)
   0E02 DD 66 05      [19] 2239 	ld	h, 5 (ix)
   0E05 E5            [11] 2240 	push	hl
   0E06 CDr00r00      [17] 2241 	call	_e4vm_utils_add_op_from_string
   0E09 F1            [10] 2242 	pop	af
   0E0A F1            [10] 2243 	pop	af
                           2244 ;e4vm.c:357: __MOVE((CHAR*)"/", _str__32, 2);
   0E0B 21 0A 00      [10] 2245 	ld	hl, #10
   0E0E 39            [11] 2246 	add	hl, sp
   0E0F EB            [ 4] 2247 	ex	de, hl
   0E10 4B            [ 4] 2248 	ld	c, e
   0E11 42            [ 4] 2249 	ld	b, d
   0E12 D5            [11] 2250 	push	de
   0E13 21 02 00      [10] 2251 	ld	hl, #0x0002
   0E16 E5            [11] 2252 	push	hl
   0E17 21r00r0F      [10] 2253 	ld	hl, #___str_65
   0E1A E5            [11] 2254 	push	hl
   0E1B C5            [11] 2255 	push	bc
   0E1C CDr00r00      [17] 2256 	call	_memcpy
   0E1F F1            [10] 2257 	pop	af
   0E20 F1            [10] 2258 	pop	af
   0E21 F1            [10] 2259 	pop	af
   0E22 DD 6E 04      [19] 2260 	ld	l, 4 (ix)
   0E25 DD 66 05      [19] 2261 	ld	h, 5 (ix)
   0E28 E5            [11] 2262 	push	hl
   0E29 CDr00r00      [17] 2263 	call	_e4vm_utils_add_op_from_string
   0E2C F1            [10] 2264 	pop	af
   0E2D F1            [10] 2265 	pop	af
                           2266 ;e4vm.c:359: __MOVE((CHAR*)"*", _str__31, 2);
   0E2E 21 14 00      [10] 2267 	ld	hl, #20
   0E31 39            [11] 2268 	add	hl, sp
   0E32 EB            [ 4] 2269 	ex	de, hl
   0E33 4B            [ 4] 2270 	ld	c, e
   0E34 42            [ 4] 2271 	ld	b, d
   0E35 D5            [11] 2272 	push	de
   0E36 21 02 00      [10] 2273 	ld	hl, #0x0002
   0E39 E5            [11] 2274 	push	hl
   0E3A 21r02r0F      [10] 2275 	ld	hl, #___str_66
   0E3D E5            [11] 2276 	push	hl
   0E3E C5            [11] 2277 	push	bc
   0E3F CDr00r00      [17] 2278 	call	_memcpy
   0E42 F1            [10] 2279 	pop	af
   0E43 F1            [10] 2280 	pop	af
   0E44 F1            [10] 2281 	pop	af
   0E45 DD 6E 04      [19] 2282 	ld	l, 4 (ix)
   0E48 DD 66 05      [19] 2283 	ld	h, 5 (ix)
   0E4B E5            [11] 2284 	push	hl
   0E4C CDr00r00      [17] 2285 	call	_e4vm_utils_add_op_from_string
   0E4F F1            [10] 2286 	pop	af
   0E50 F1            [10] 2287 	pop	af
                           2288 ;e4vm.c:361: __MOVE((CHAR*)"exit", _str__30, 5);
   0E51 21 1E 00      [10] 2289 	ld	hl, #30
   0E54 39            [11] 2290 	add	hl, sp
   0E55 EB            [ 4] 2291 	ex	de, hl
   0E56 4B            [ 4] 2292 	ld	c, e
   0E57 42            [ 4] 2293 	ld	b, d
   0E58 D5            [11] 2294 	push	de
   0E59 21 05 00      [10] 2295 	ld	hl, #0x0005
   0E5C E5            [11] 2296 	push	hl
   0E5D 21r04r0F      [10] 2297 	ld	hl, #___str_67
   0E60 E5            [11] 2298 	push	hl
   0E61 C5            [11] 2299 	push	bc
   0E62 CDr00r00      [17] 2300 	call	_memcpy
   0E65 F1            [10] 2301 	pop	af
   0E66 F1            [10] 2302 	pop	af
   0E67 F1            [10] 2303 	pop	af
   0E68 DD 6E 04      [19] 2304 	ld	l, 4 (ix)
   0E6B DD 66 05      [19] 2305 	ld	h, 5 (ix)
   0E6E E5            [11] 2306 	push	hl
   0E6F CDr00r00      [17] 2307 	call	_e4vm_utils_add_op_from_string
   0E72 F1            [10] 2308 	pop	af
                           2309 ;e4vm.c:363: e4vm_utils_stack_ds_push(v, 3);
   0E73 21 03 00      [10] 2310 	ld	hl, #0x0003
   0E76 E3            [19] 2311 	ex	(sp),hl
   0E77 DD 6E 04      [19] 2312 	ld	l, 4 (ix)
   0E7A DD 66 05      [19] 2313 	ld	h, 5 (ix)
   0E7D E5            [11] 2314 	push	hl
   0E7E CDr00r00      [17] 2315 	call	_e4vm_utils_stack_ds_push
   0E81 F1            [10] 2316 	pop	af
                           2317 ;e4vm.c:364: e4vm_utils_stack_ds_push(v, 10);
   0E82 21 0A 00      [10] 2318 	ld	hl, #0x000a
   0E85 E3            [19] 2319 	ex	(sp),hl
   0E86 DD 6E 04      [19] 2320 	ld	l, 4 (ix)
   0E89 DD 66 05      [19] 2321 	ld	h, 5 (ix)
   0E8C E5            [11] 2322 	push	hl
   0E8D CDr00r00      [17] 2323 	call	_e4vm_utils_stack_ds_push
   0E90 F1            [10] 2324 	pop	af
                           2325 ;e4vm.c:365: e4vm_utils_stack_ds_push(v, 2);
   0E91 21 02 00      [10] 2326 	ld	hl, #0x0002
   0E94 E3            [19] 2327 	ex	(sp),hl
   0E95 DD 6E 04      [19] 2328 	ld	l, 4 (ix)
   0E98 DD 66 05      [19] 2329 	ld	h, 5 (ix)
   0E9B E5            [11] 2330 	push	hl
   0E9C CDr00r00      [17] 2331 	call	_e4vm_utils_stack_ds_push
   0E9F F1            [10] 2332 	pop	af
   0EA0 F1            [10] 2333 	pop	af
                           2334 ;e4vm.c:366: e4vm_core_do_list(v);
   0EA1 DD 6E 04      [19] 2335 	ld	l, 4 (ix)
   0EA4 DD 66 05      [19] 2336 	ld	h, 5 (ix)
   0EA7 E5            [11] 2337 	push	hl
   0EA8 CDr00r00      [17] 2338 	call	_e4vm_core_do_list
   0EAB F1            [10] 2339 	pop	af
                           2340 ;e4vm.c:367: e4vm_core_do_next(v);
   0EAC DD 6E 04      [19] 2341 	ld	l, 4 (ix)
   0EAF DD 66 05      [19] 2342 	ld	h, 5 (ix)
   0EB2 E5            [11] 2343 	push	hl
   0EB3 CDr00r00      [17] 2344 	call	_e4vm_core_do_next
   0EB6 F1            [10] 2345 	pop	af
                           2346 ;e4vm.c:368: if ((*v)->ds[0] == 15) {
   0EB7 DD 6E 04      [19] 2347 	ld	l, 4 (ix)
   0EBA DD 66 05      [19] 2348 	ld	h, 5 (ix)
   0EBD 7E            [ 7] 2349 	ld	a, (hl)
   0EBE 23            [ 6] 2350 	inc	hl
   0EBF 66            [ 7] 2351 	ld	h, (hl)
   0EC0 6F            [ 4] 2352 	ld	l, a
   0EC1 11 44 00      [10] 2353 	ld	de, #0x0044
   0EC4 19            [11] 2354 	add	hl, de
   0EC5 4E            [ 7] 2355 	ld	c, (hl)
   0EC6 23            [ 6] 2356 	inc	hl
   0EC7 46            [ 7] 2357 	ld	b, (hl)
   0EC8 79            [ 4] 2358 	ld	a, c
   0EC9 D6 0F         [ 7] 2359 	sub	a, #0x0f
   0ECB B0            [ 4] 2360 	or	a, b
   0ECC 20 0B         [12] 2361 	jr	NZ,00102$
                           2362 ;e4vm.c:369: Console_WriteStrLn((CHAR*)" - ok", 6);
   0ECE 21r09r0F      [10] 2363 	ld	hl, #___str_68
   0ED1 CDr00r00      [17] 2364 	call	_Console_WriteStr_C_COMPACT
   0ED4 CDr00r00      [17] 2365 	call	_Console_WriteLn_COMPACT
   0ED7 18 09         [12] 2366 	jr	00104$
   0ED9                    2367 00102$:
                           2368 ;e4vm.c:371: Console_WriteStrLn((CHAR*)" - error", 9);
   0ED9 21r0Fr0F      [10] 2369 	ld	hl, #___str_69
   0EDC CDr00r00      [17] 2370 	call	_Console_WriteStr_C_COMPACT
   0EDF CDr00r00      [17] 2371 	call	_Console_WriteLn_COMPACT
   0EE2                    2372 00104$:
                           2373 ;e4vm.c:373: }
   0EE2 DD F9         [10] 2374 	ld	sp, ix
   0EE4 DD E1         [14] 2375 	pop	ix
   0EE6 C9            [10] 2376 	ret
   0EE7                    2377 ___str_63:
   0EE7 54 65 73 74 20 6D  2378 	.ascii "Test math (/, *) "
        61 74 68 20 28 2F
        2C 20 2A 29 20
   0EF8 00                 2379 	.db 0x00
   0EF9                    2380 ___str_64:
   0EF9 64 6F 6C 69 73 74  2381 	.ascii "dolist"
   0EFF 00                 2382 	.db 0x00
   0F00                    2383 ___str_65:
   0F00 2F                 2384 	.ascii "/"
   0F01 00                 2385 	.db 0x00
   0F02                    2386 ___str_66:
   0F02 2A                 2387 	.ascii "*"
   0F03 00                 2388 	.db 0x00
   0F04                    2389 ___str_67:
   0F04 65 78 69 74        2390 	.ascii "exit"
   0F08 00                 2391 	.db 0x00
   0F09                    2392 ___str_68:
   0F09 20 2D 20 6F 6B     2393 	.ascii " - ok"
   0F0E 00                 2394 	.db 0x00
   0F0F                    2395 ___str_69:
   0F0F 20 2D 20 65 72 72  2396 	.ascii " - error"
        6F 72
   0F17 00                 2397 	.db 0x00
                           2398 ;e4vm.c:375: static void e4vm_test_inc (e4vm_type_x4thPtr *v)
                           2399 ;	---------------------------------
                           2400 ; Function e4vm_test_inc
                           2401 ; ---------------------------------
   0F18                    2402 _e4vm_test_inc:
   0F18 CDr00r00      [17] 2403 	call	___sdcc_enter_ix
   0F1B 21 CE FF      [10] 2404 	ld	hl, #-50
   0F1E 39            [11] 2405 	add	hl, sp
   0F1F F9            [ 6] 2406 	ld	sp, hl
                           2407 ;e4vm.c:382: Console_WriteStr((CHAR*)"Test math 1+ 1-", 16);
   0F20 21r8Fr10      [10] 2408 	ld	hl, #___str_70
   0F23 CDr00r00      [17] 2409 	call	_Console_WriteStr_C_COMPACT
                           2410 ;e4vm.c:383: e4vm_utils_init(v);
   0F26 DD 6E 04      [19] 2411 	ld	l, 4 (ix)
   0F29 DD 66 05      [19] 2412 	ld	h, 5 (ix)
   0F2C E5            [11] 2413 	push	hl
   0F2D CDr00r00      [17] 2414 	call	_e4vm_utils_init
   0F30 F1            [10] 2415 	pop	af
                           2416 ;e4vm.c:384: e4vm_core_add_core_words(v);
   0F31 DD 6E 04      [19] 2417 	ld	l, 4 (ix)
   0F34 DD 66 05      [19] 2418 	ld	h, 5 (ix)
   0F37 E5            [11] 2419 	push	hl
   0F38 CDr00r00      [17] 2420 	call	_e4vm_core_add_core_words
   0F3B F1            [10] 2421 	pop	af
                           2422 ;e4vm.c:385: e4vm_stack_add_core_words(v);
   0F3C DD 6E 04      [19] 2423 	ld	l, 4 (ix)
   0F3F DD 66 05      [19] 2424 	ld	h, 5 (ix)
   0F42 E5            [11] 2425 	push	hl
   0F43 CDr00r00      [17] 2426 	call	_e4vm_stack_add_core_words
   0F46 F1            [10] 2427 	pop	af
                           2428 ;e4vm.c:386: e4vm_math_add_core_words(v);
   0F47 DD 6E 04      [19] 2429 	ld	l, 4 (ix)
   0F4A DD 66 05      [19] 2430 	ld	h, 5 (ix)
   0F4D E5            [11] 2431 	push	hl
   0F4E CDr00r00      [17] 2432 	call	_e4vm_math_add_core_words
   0F51 F1            [10] 2433 	pop	af
                           2434 ;e4vm.c:387: e4vm_utils_here_to_wp(v);
   0F52 DD 6E 04      [19] 2435 	ld	l, 4 (ix)
   0F55 DD 66 05      [19] 2436 	ld	h, 5 (ix)
   0F58 E5            [11] 2437 	push	hl
   0F59 CDr00r00      [17] 2438 	call	_e4vm_utils_here_to_wp
   0F5C F1            [10] 2439 	pop	af
                           2440 ;e4vm.c:388: __MOVE((CHAR*)"dolist", _str__66, 7);
   0F5D 21 00 00      [10] 2441 	ld	hl, #0
   0F60 39            [11] 2442 	add	hl, sp
   0F61 EB            [ 4] 2443 	ex	de, hl
   0F62 4B            [ 4] 2444 	ld	c, e
   0F63 42            [ 4] 2445 	ld	b, d
   0F64 D5            [11] 2446 	push	de
   0F65 21 07 00      [10] 2447 	ld	hl, #0x0007
   0F68 E5            [11] 2448 	push	hl
   0F69 21r9Fr10      [10] 2449 	ld	hl, #___str_71
   0F6C E5            [11] 2450 	push	hl
   0F6D C5            [11] 2451 	push	bc
   0F6E CDr00r00      [17] 2452 	call	_memcpy
   0F71 F1            [10] 2453 	pop	af
   0F72 F1            [10] 2454 	pop	af
   0F73 F1            [10] 2455 	pop	af
   0F74 DD 6E 04      [19] 2456 	ld	l, 4 (ix)
   0F77 DD 66 05      [19] 2457 	ld	h, 5 (ix)
   0F7A E5            [11] 2458 	push	hl
   0F7B CDr00r00      [17] 2459 	call	_e4vm_utils_add_op_from_string
   0F7E F1            [10] 2460 	pop	af
   0F7F F1            [10] 2461 	pop	af
                           2462 ;e4vm.c:390: __MOVE((CHAR*)"1+", _str__65, 3);
   0F80 21 0A 00      [10] 2463 	ld	hl, #10
   0F83 39            [11] 2464 	add	hl, sp
   0F84 EB            [ 4] 2465 	ex	de, hl
   0F85 4B            [ 4] 2466 	ld	c, e
   0F86 42            [ 4] 2467 	ld	b, d
   0F87 D5            [11] 2468 	push	de
   0F88 21 03 00      [10] 2469 	ld	hl, #0x0003
   0F8B E5            [11] 2470 	push	hl
   0F8C 21rA6r10      [10] 2471 	ld	hl, #___str_72
   0F8F E5            [11] 2472 	push	hl
   0F90 C5            [11] 2473 	push	bc
   0F91 CDr00r00      [17] 2474 	call	_memcpy
   0F94 F1            [10] 2475 	pop	af
   0F95 F1            [10] 2476 	pop	af
   0F96 F1            [10] 2477 	pop	af
   0F97 DD 6E 04      [19] 2478 	ld	l, 4 (ix)
   0F9A DD 66 05      [19] 2479 	ld	h, 5 (ix)
   0F9D E5            [11] 2480 	push	hl
   0F9E CDr00r00      [17] 2481 	call	_e4vm_utils_add_op_from_string
   0FA1 F1            [10] 2482 	pop	af
   0FA2 F1            [10] 2483 	pop	af
                           2484 ;e4vm.c:392: __MOVE((CHAR*)"swap", _str__64, 5);
   0FA3 21 14 00      [10] 2485 	ld	hl, #20
   0FA6 39            [11] 2486 	add	hl, sp
   0FA7 EB            [ 4] 2487 	ex	de, hl
   0FA8 4B            [ 4] 2488 	ld	c, e
   0FA9 42            [ 4] 2489 	ld	b, d
   0FAA D5            [11] 2490 	push	de
   0FAB 21 05 00      [10] 2491 	ld	hl, #0x0005
   0FAE E5            [11] 2492 	push	hl
   0FAF 21rA9r10      [10] 2493 	ld	hl, #___str_73
   0FB2 E5            [11] 2494 	push	hl
   0FB3 C5            [11] 2495 	push	bc
   0FB4 CDr00r00      [17] 2496 	call	_memcpy
   0FB7 F1            [10] 2497 	pop	af
   0FB8 F1            [10] 2498 	pop	af
   0FB9 F1            [10] 2499 	pop	af
   0FBA DD 6E 04      [19] 2500 	ld	l, 4 (ix)
   0FBD DD 66 05      [19] 2501 	ld	h, 5 (ix)
   0FC0 E5            [11] 2502 	push	hl
   0FC1 CDr00r00      [17] 2503 	call	_e4vm_utils_add_op_from_string
   0FC4 F1            [10] 2504 	pop	af
   0FC5 F1            [10] 2505 	pop	af
                           2506 ;e4vm.c:394: __MOVE((CHAR*)"1-", _str__63, 3);
   0FC6 21 1E 00      [10] 2507 	ld	hl, #30
   0FC9 39            [11] 2508 	add	hl, sp
   0FCA EB            [ 4] 2509 	ex	de, hl
   0FCB 4B            [ 4] 2510 	ld	c, e
   0FCC 42            [ 4] 2511 	ld	b, d
   0FCD D5            [11] 2512 	push	de
   0FCE 21 03 00      [10] 2513 	ld	hl, #0x0003
   0FD1 E5            [11] 2514 	push	hl
   0FD2 21rAEr10      [10] 2515 	ld	hl, #___str_74
   0FD5 E5            [11] 2516 	push	hl
   0FD6 C5            [11] 2517 	push	bc
   0FD7 CDr00r00      [17] 2518 	call	_memcpy
   0FDA F1            [10] 2519 	pop	af
   0FDB F1            [10] 2520 	pop	af
   0FDC F1            [10] 2521 	pop	af
   0FDD DD 6E 04      [19] 2522 	ld	l, 4 (ix)
   0FE0 DD 66 05      [19] 2523 	ld	h, 5 (ix)
   0FE3 E5            [11] 2524 	push	hl
   0FE4 CDr00r00      [17] 2525 	call	_e4vm_utils_add_op_from_string
   0FE7 F1            [10] 2526 	pop	af
   0FE8 F1            [10] 2527 	pop	af
                           2528 ;e4vm.c:396: __MOVE((CHAR*)"exit", _str__62, 5);
   0FE9 21 28 00      [10] 2529 	ld	hl, #40
   0FEC 39            [11] 2530 	add	hl, sp
   0FED EB            [ 4] 2531 	ex	de, hl
   0FEE 4B            [ 4] 2532 	ld	c, e
   0FEF 42            [ 4] 2533 	ld	b, d
   0FF0 D5            [11] 2534 	push	de
   0FF1 21 05 00      [10] 2535 	ld	hl, #0x0005
   0FF4 E5            [11] 2536 	push	hl
   0FF5 21rB1r10      [10] 2537 	ld	hl, #___str_75
   0FF8 E5            [11] 2538 	push	hl
   0FF9 C5            [11] 2539 	push	bc
   0FFA CDr00r00      [17] 2540 	call	_memcpy
   0FFD F1            [10] 2541 	pop	af
   0FFE F1            [10] 2542 	pop	af
   0FFF F1            [10] 2543 	pop	af
   1000 DD 6E 04      [19] 2544 	ld	l, 4 (ix)
   1003 DD 66 05      [19] 2545 	ld	h, 5 (ix)
   1006 E5            [11] 2546 	push	hl
   1007 CDr00r00      [17] 2547 	call	_e4vm_utils_add_op_from_string
   100A F1            [10] 2548 	pop	af
                           2549 ;e4vm.c:398: e4vm_utils_stack_ds_push(v, 10);
   100B 21 0A 00      [10] 2550 	ld	hl, #0x000a
   100E E3            [19] 2551 	ex	(sp),hl
   100F DD 6E 04      [19] 2552 	ld	l, 4 (ix)
   1012 DD 66 05      [19] 2553 	ld	h, 5 (ix)
   1015 E5            [11] 2554 	push	hl
   1016 CDr00r00      [17] 2555 	call	_e4vm_utils_stack_ds_push
   1019 F1            [10] 2556 	pop	af
                           2557 ;e4vm.c:399: e4vm_utils_stack_ds_push(v, 20);
   101A 21 14 00      [10] 2558 	ld	hl, #0x0014
   101D E3            [19] 2559 	ex	(sp),hl
   101E DD 6E 04      [19] 2560 	ld	l, 4 (ix)
   1021 DD 66 05      [19] 2561 	ld	h, 5 (ix)
   1024 E5            [11] 2562 	push	hl
   1025 CDr00r00      [17] 2563 	call	_e4vm_utils_stack_ds_push
   1028 F1            [10] 2564 	pop	af
   1029 F1            [10] 2565 	pop	af
                           2566 ;e4vm.c:400: e4vm_core_do_list(v);
   102A DD 6E 04      [19] 2567 	ld	l, 4 (ix)
   102D DD 66 05      [19] 2568 	ld	h, 5 (ix)
   1030 E5            [11] 2569 	push	hl
   1031 CDr00r00      [17] 2570 	call	_e4vm_core_do_list
   1034 F1            [10] 2571 	pop	af
                           2572 ;e4vm.c:401: e4vm_core_do_next(v);
   1035 DD 6E 04      [19] 2573 	ld	l, 4 (ix)
   1038 DD 66 05      [19] 2574 	ld	h, 5 (ix)
   103B E5            [11] 2575 	push	hl
   103C CDr00r00      [17] 2576 	call	_e4vm_core_do_next
   103F F1            [10] 2577 	pop	af
                           2578 ;e4vm.c:402: if ((*v)->ds[(*v)->ds_p - 1] == 9 && (*v)->ds[(*v)->ds_p - 2] == 21) {
   1040 DD 6E 04      [19] 2579 	ld	l, 4 (ix)
   1043 DD 66 05      [19] 2580 	ld	h, 5 (ix)
   1046 4E            [ 7] 2581 	ld	c, (hl)
   1047 23            [ 6] 2582 	inc	hl
   1048 46            [ 7] 2583 	ld	b, (hl)
   1049 21 44 00      [10] 2584 	ld	hl, #0x0044
   104C 09            [11] 2585 	add	hl, bc
   104D EB            [ 4] 2586 	ex	de, hl
   104E 69            [ 4] 2587 	ld	l, c
   104F 60            [ 4] 2588 	ld	h, b
   1050 01 86 00      [10] 2589 	ld	bc, #0x0086
   1053 09            [11] 2590 	add	hl, bc
   1054 4E            [ 7] 2591 	ld	c, (hl)
   1055 79            [ 4] 2592 	ld	a, c
   1056 3D            [ 4] 2593 	dec	a
   1057 87            [ 4] 2594 	add	a, a
   1058 6F            [ 4] 2595 	ld	l, a
   1059 26 00         [ 7] 2596 	ld	h, #0x00
   105B 19            [11] 2597 	add	hl, de
   105C 46            [ 7] 2598 	ld	b, (hl)
   105D 23            [ 6] 2599 	inc	hl
   105E 6E            [ 7] 2600 	ld	l, (hl)
   105F 78            [ 4] 2601 	ld	a, b
   1060 D6 09         [ 7] 2602 	sub	a, #0x09
   1062 B5            [ 4] 2603 	or	a, l
   1063 20 1C         [12] 2604 	jr	NZ,00102$
   1065 79            [ 4] 2605 	ld	a, c
   1066 3D            [ 4] 2606 	dec	a
   1067 3D            [ 4] 2607 	dec	a
   1068 87            [ 4] 2608 	add	a, a
   1069 6F            [ 4] 2609 	ld	l, a
   106A 26 00         [ 7] 2610 	ld	h, #0x00
   106C 19            [11] 2611 	add	hl, de
   106D 4E            [ 7] 2612 	ld	c, (hl)
   106E 23            [ 6] 2613 	inc	hl
   106F 46            [ 7] 2614 	ld	b, (hl)
   1070 79            [ 4] 2615 	ld	a, c
   1071 D6 15         [ 7] 2616 	sub	a, #0x15
   1073 B0            [ 4] 2617 	or	a, b
   1074 20 0B         [12] 2618 	jr	NZ,00102$
                           2619 ;e4vm.c:403: Console_WriteStrLn((CHAR*)" - ok", 6);
   1076 21rB6r10      [10] 2620 	ld	hl, #___str_76
   1079 CDr00r00      [17] 2621 	call	_Console_WriteStr_C_COMPACT
   107C CDr00r00      [17] 2622 	call	_Console_WriteLn_COMPACT
   107F 18 09         [12] 2623 	jr	00105$
   1081                    2624 00102$:
                           2625 ;e4vm.c:405: Console_WriteStrLn((CHAR*)" - error", 9);
   1081 21rBCr10      [10] 2626 	ld	hl, #___str_77
   1084 CDr00r00      [17] 2627 	call	_Console_WriteStr_C_COMPACT
   1087 CDr00r00      [17] 2628 	call	_Console_WriteLn_COMPACT
   108A                    2629 00105$:
                           2630 ;e4vm.c:407: }
   108A DD F9         [10] 2631 	ld	sp, ix
   108C DD E1         [14] 2632 	pop	ix
   108E C9            [10] 2633 	ret
   108F                    2634 ___str_70:
   108F 54 65 73 74 20 6D  2635 	.ascii "Test math 1+ 1-"
        61 74 68 20 31 2B
        20 31 2D
   109E 00                 2636 	.db 0x00
   109F                    2637 ___str_71:
   109F 64 6F 6C 69 73 74  2638 	.ascii "dolist"
   10A5 00                 2639 	.db 0x00
   10A6                    2640 ___str_72:
   10A6 31 2B              2641 	.ascii "1+"
   10A8 00                 2642 	.db 0x00
   10A9                    2643 ___str_73:
   10A9 73 77 61 70        2644 	.ascii "swap"
   10AD 00                 2645 	.db 0x00
   10AE                    2646 ___str_74:
   10AE 31 2D              2647 	.ascii "1-"
   10B0 00                 2648 	.db 0x00
   10B1                    2649 ___str_75:
   10B1 65 78 69 74        2650 	.ascii "exit"
   10B5 00                 2651 	.db 0x00
   10B6                    2652 ___str_76:
   10B6 20 2D 20 6F 6B     2653 	.ascii " - ok"
   10BB 00                 2654 	.db 0x00
   10BC                    2655 ___str_77:
   10BC 20 2D 20 65 72 72  2656 	.ascii " - error"
        6F 72
   10C4 00                 2657 	.db 0x00
                           2658 ;e4vm.c:409: static void e4vm_test_true (e4vm_type_x4thPtr *v)
                           2659 ;	---------------------------------
                           2660 ; Function e4vm_test_true
                           2661 ; ---------------------------------
   10C5                    2662 _e4vm_test_true:
   10C5 CDr00r00      [17] 2663 	call	___sdcc_enter_ix
   10C8 21 E2 FF      [10] 2664 	ld	hl, #-30
   10CB 39            [11] 2665 	add	hl, sp
   10CC F9            [ 6] 2666 	ld	sp, hl
                           2667 ;e4vm.c:414: Console_WriteStr((CHAR*)"Test true ", 11);
   10CD 21rC9r11      [10] 2668 	ld	hl, #___str_78
   10D0 CDr00r00      [17] 2669 	call	_Console_WriteStr_C_COMPACT
                           2670 ;e4vm.c:415: e4vm_utils_init(v);
   10D3 DD 6E 04      [19] 2671 	ld	l, 4 (ix)
   10D6 DD 66 05      [19] 2672 	ld	h, 5 (ix)
   10D9 E5            [11] 2673 	push	hl
   10DA CDr00r00      [17] 2674 	call	_e4vm_utils_init
   10DD F1            [10] 2675 	pop	af
                           2676 ;e4vm.c:416: e4vm_core_add_core_words(v);
   10DE DD 6E 04      [19] 2677 	ld	l, 4 (ix)
   10E1 DD 66 05      [19] 2678 	ld	h, 5 (ix)
   10E4 E5            [11] 2679 	push	hl
   10E5 CDr00r00      [17] 2680 	call	_e4vm_core_add_core_words
   10E8 F1            [10] 2681 	pop	af
                           2682 ;e4vm.c:417: e4vm_boolean_add_core_words(v);
   10E9 DD 6E 04      [19] 2683 	ld	l, 4 (ix)
   10EC DD 66 05      [19] 2684 	ld	h, 5 (ix)
   10EF E5            [11] 2685 	push	hl
   10F0 CDr00r00      [17] 2686 	call	_e4vm_boolean_add_core_words
   10F3 F1            [10] 2687 	pop	af
                           2688 ;e4vm.c:418: e4vm_utils_here_to_wp(v);
   10F4 DD 6E 04      [19] 2689 	ld	l, 4 (ix)
   10F7 DD 66 05      [19] 2690 	ld	h, 5 (ix)
   10FA E5            [11] 2691 	push	hl
   10FB CDr00r00      [17] 2692 	call	_e4vm_utils_here_to_wp
   10FE F1            [10] 2693 	pop	af
                           2694 ;e4vm.c:419: __MOVE((CHAR*)"dolist", _str__110, 7);
   10FF 21 00 00      [10] 2695 	ld	hl, #0
   1102 39            [11] 2696 	add	hl, sp
   1103 EB            [ 4] 2697 	ex	de, hl
   1104 4B            [ 4] 2698 	ld	c, e
   1105 42            [ 4] 2699 	ld	b, d
   1106 D5            [11] 2700 	push	de
   1107 21 07 00      [10] 2701 	ld	hl, #0x0007
   110A E5            [11] 2702 	push	hl
   110B 21rD4r11      [10] 2703 	ld	hl, #___str_79
   110E E5            [11] 2704 	push	hl
   110F C5            [11] 2705 	push	bc
   1110 CDr00r00      [17] 2706 	call	_memcpy
   1113 F1            [10] 2707 	pop	af
   1114 F1            [10] 2708 	pop	af
   1115 F1            [10] 2709 	pop	af
   1116 DD 6E 04      [19] 2710 	ld	l, 4 (ix)
   1119 DD 66 05      [19] 2711 	ld	h, 5 (ix)
   111C E5            [11] 2712 	push	hl
   111D CDr00r00      [17] 2713 	call	_e4vm_utils_add_op_from_string
   1120 F1            [10] 2714 	pop	af
   1121 F1            [10] 2715 	pop	af
                           2716 ;e4vm.c:421: __MOVE((CHAR*)"true", _str__109, 5);
   1122 21 0A 00      [10] 2717 	ld	hl, #10
   1125 39            [11] 2718 	add	hl, sp
   1126 EB            [ 4] 2719 	ex	de, hl
   1127 4B            [ 4] 2720 	ld	c, e
   1128 42            [ 4] 2721 	ld	b, d
   1129 D5            [11] 2722 	push	de
   112A 21 05 00      [10] 2723 	ld	hl, #0x0005
   112D E5            [11] 2724 	push	hl
   112E 21rDBr11      [10] 2725 	ld	hl, #___str_80
   1131 E5            [11] 2726 	push	hl
   1132 C5            [11] 2727 	push	bc
   1133 CDr00r00      [17] 2728 	call	_memcpy
   1136 F1            [10] 2729 	pop	af
   1137 F1            [10] 2730 	pop	af
   1138 F1            [10] 2731 	pop	af
   1139 DD 6E 04      [19] 2732 	ld	l, 4 (ix)
   113C DD 66 05      [19] 2733 	ld	h, 5 (ix)
   113F E5            [11] 2734 	push	hl
   1140 CDr00r00      [17] 2735 	call	_e4vm_utils_add_op_from_string
   1143 F1            [10] 2736 	pop	af
   1144 F1            [10] 2737 	pop	af
                           2738 ;e4vm.c:423: __MOVE((CHAR*)"exit", _str__108, 5);
   1145 21 14 00      [10] 2739 	ld	hl, #20
   1148 39            [11] 2740 	add	hl, sp
   1149 EB            [ 4] 2741 	ex	de, hl
   114A 4B            [ 4] 2742 	ld	c, e
   114B 42            [ 4] 2743 	ld	b, d
   114C D5            [11] 2744 	push	de
   114D 21 05 00      [10] 2745 	ld	hl, #0x0005
   1150 E5            [11] 2746 	push	hl
   1151 21rE0r11      [10] 2747 	ld	hl, #___str_81
   1154 E5            [11] 2748 	push	hl
   1155 C5            [11] 2749 	push	bc
   1156 CDr00r00      [17] 2750 	call	_memcpy
   1159 F1            [10] 2751 	pop	af
   115A F1            [10] 2752 	pop	af
   115B F1            [10] 2753 	pop	af
   115C DD 6E 04      [19] 2754 	ld	l, 4 (ix)
   115F DD 66 05      [19] 2755 	ld	h, 5 (ix)
   1162 E5            [11] 2756 	push	hl
   1163 CDr00r00      [17] 2757 	call	_e4vm_utils_add_op_from_string
   1166 F1            [10] 2758 	pop	af
   1167 F1            [10] 2759 	pop	af
                           2760 ;e4vm.c:425: e4vm_core_do_list(v);
   1168 DD 6E 04      [19] 2761 	ld	l, 4 (ix)
   116B DD 66 05      [19] 2762 	ld	h, 5 (ix)
   116E E5            [11] 2763 	push	hl
   116F CDr00r00      [17] 2764 	call	_e4vm_core_do_list
   1172 F1            [10] 2765 	pop	af
                           2766 ;e4vm.c:426: e4vm_core_do_next(v);
   1173 DD 6E 04      [19] 2767 	ld	l, 4 (ix)
   1176 DD 66 05      [19] 2768 	ld	h, 5 (ix)
   1179 E5            [11] 2769 	push	hl
   117A CDr00r00      [17] 2770 	call	_e4vm_core_do_next
   117D F1            [10] 2771 	pop	af
                           2772 ;e4vm.c:427: if ((*v)->ds[(*v)->ds_p - 1] == e4vm_utils_true_const(&e4vm_vm)) {
   117E DD 6E 04      [19] 2773 	ld	l, 4 (ix)
   1181 DD 66 05      [19] 2774 	ld	h, 5 (ix)
   1184 4E            [ 7] 2775 	ld	c, (hl)
   1185 23            [ 6] 2776 	inc	hl
   1186 46            [ 7] 2777 	ld	b, (hl)
   1187 21 44 00      [10] 2778 	ld	hl, #0x0044
   118A 09            [11] 2779 	add	hl, bc
   118B EB            [ 4] 2780 	ex	de, hl
   118C 69            [ 4] 2781 	ld	l, c
   118D 60            [ 4] 2782 	ld	h, b
   118E 01 86 00      [10] 2783 	ld	bc, #0x0086
   1191 09            [11] 2784 	add	hl, bc
   1192 7E            [ 7] 2785 	ld	a, (hl)
   1193 3D            [ 4] 2786 	dec	a
   1194 87            [ 4] 2787 	add	a, a
   1195 83            [ 4] 2788 	add	a, e
   1196 5F            [ 4] 2789 	ld	e, a
   1197 3E 00         [ 7] 2790 	ld	a, #0x00
   1199 8A            [ 4] 2791 	adc	a, d
   119A 57            [ 4] 2792 	ld	d, a
   119B D5            [11] 2793 	push	de
   119C 21r0Fr03      [10] 2794 	ld	hl, #_e4vm_vm
   119F E5            [11] 2795 	push	hl
   11A0 CDr00r00      [17] 2796 	call	_e4vm_utils_true_const
   11A3 F1            [10] 2797 	pop	af
   11A4 4D            [ 4] 2798 	ld	c, l
   11A5 44            [ 4] 2799 	ld	b, h
   11A6 E1            [10] 2800 	pop	hl
   11A7 5E            [ 7] 2801 	ld	e, (hl)
   11A8 23            [ 6] 2802 	inc	hl
   11A9 56            [ 7] 2803 	ld	d, (hl)
   11AA EB            [ 4] 2804 	ex	de,hl
   11AB BF            [ 4] 2805 	cp	a, a
   11AC ED 42         [15] 2806 	sbc	hl, bc
   11AE 20 0B         [12] 2807 	jr	NZ,00102$
                           2808 ;e4vm.c:428: Console_WriteStrLn((CHAR*)" - ok", 6);
   11B0 21rE5r11      [10] 2809 	ld	hl, #___str_82
   11B3 CDr00r00      [17] 2810 	call	_Console_WriteStr_C_COMPACT
   11B6 CDr00r00      [17] 2811 	call	_Console_WriteLn_COMPACT
   11B9 18 09         [12] 2812 	jr	00104$
   11BB                    2813 00102$:
                           2814 ;e4vm.c:430: Console_WriteStrLn((CHAR*)" - error", 9);
   11BB 21rEBr11      [10] 2815 	ld	hl, #___str_83
   11BE CDr00r00      [17] 2816 	call	_Console_WriteStr_C_COMPACT
   11C1 CDr00r00      [17] 2817 	call	_Console_WriteLn_COMPACT
   11C4                    2818 00104$:
                           2819 ;e4vm.c:432: }
   11C4 DD F9         [10] 2820 	ld	sp, ix
   11C6 DD E1         [14] 2821 	pop	ix
   11C8 C9            [10] 2822 	ret
   11C9                    2823 ___str_78:
   11C9 54 65 73 74 20 74  2824 	.ascii "Test true "
        72 75 65 20
   11D3 00                 2825 	.db 0x00
   11D4                    2826 ___str_79:
   11D4 64 6F 6C 69 73 74  2827 	.ascii "dolist"
   11DA 00                 2828 	.db 0x00
   11DB                    2829 ___str_80:
   11DB 74 72 75 65        2830 	.ascii "true"
   11DF 00                 2831 	.db 0x00
   11E0                    2832 ___str_81:
   11E0 65 78 69 74        2833 	.ascii "exit"
   11E4 00                 2834 	.db 0x00
   11E5                    2835 ___str_82:
   11E5 20 2D 20 6F 6B     2836 	.ascii " - ok"
   11EA 00                 2837 	.db 0x00
   11EB                    2838 ___str_83:
   11EB 20 2D 20 65 72 72  2839 	.ascii " - error"
        6F 72
   11F3 00                 2840 	.db 0x00
                           2841 ;e4vm.c:434: static void e4vm_test_not (e4vm_type_x4thPtr *v)
                           2842 ;	---------------------------------
                           2843 ; Function e4vm_test_not
                           2844 ; ---------------------------------
   11F4                    2845 _e4vm_test_not:
   11F4 CDr00r00      [17] 2846 	call	___sdcc_enter_ix
   11F7 21 DE FF      [10] 2847 	ld	hl, #-34
   11FA 39            [11] 2848 	add	hl, sp
   11FB F9            [ 6] 2849 	ld	sp, hl
                           2850 ;e4vm.c:440: Console_WriteStr((CHAR*)"Test not ", 10);
   11FC 21rD2r13      [10] 2851 	ld	hl, #___str_84
   11FF CDr00r00      [17] 2852 	call	_Console_WriteStr_C_COMPACT
                           2853 ;e4vm.c:441: e4vm_utils_init(v);
   1202 DD 6E 04      [19] 2854 	ld	l, 4 (ix)
   1205 DD 66 05      [19] 2855 	ld	h, 5 (ix)
   1208 E5            [11] 2856 	push	hl
   1209 CDr00r00      [17] 2857 	call	_e4vm_utils_init
   120C F1            [10] 2858 	pop	af
                           2859 ;e4vm.c:442: e4vm_core_add_core_words(v);
   120D DD 6E 04      [19] 2860 	ld	l, 4 (ix)
   1210 DD 66 05      [19] 2861 	ld	h, 5 (ix)
   1213 E5            [11] 2862 	push	hl
   1214 CDr00r00      [17] 2863 	call	_e4vm_core_add_core_words
   1217 F1            [10] 2864 	pop	af
                           2865 ;e4vm.c:443: e4vm_boolean_add_core_words(v);
   1218 DD 6E 04      [19] 2866 	ld	l, 4 (ix)
   121B DD 66 05      [19] 2867 	ld	h, 5 (ix)
   121E E5            [11] 2868 	push	hl
   121F CDr00r00      [17] 2869 	call	_e4vm_boolean_add_core_words
   1222 F1            [10] 2870 	pop	af
                           2871 ;e4vm.c:444: start_addr = (*v)->hereP;
   1223 DD 4E 04      [19] 2872 	ld	c, 4 (ix)
   1226 DD 46 05      [19] 2873 	ld	b, 5 (ix)
   1229 69            [ 4] 2874 	ld	l, c
   122A 60            [ 4] 2875 	ld	h, b
   122B 5E            [ 7] 2876 	ld	e, (hl)
   122C 23            [ 6] 2877 	inc	hl
   122D 66            [ 7] 2878 	ld	h, (hl)
   122E 6B            [ 4] 2879 	ld	l, e
   122F 11 88 00      [10] 2880 	ld	de, #0x0088
   1232 19            [11] 2881 	add	hl, de
   1233 7E            [ 7] 2882 	ld	a, (hl)
   1234 DD 77 FC      [19] 2883 	ld	-4 (ix), a
   1237 23            [ 6] 2884 	inc	hl
   1238 7E            [ 7] 2885 	ld	a, (hl)
   1239 DD 77 FD      [19] 2886 	ld	-3 (ix), a
                           2887 ;e4vm.c:445: __MOVE((CHAR*)"dolist", _str__83, 7);
   123C 21 00 00      [10] 2888 	ld	hl, #0
   123F 39            [11] 2889 	add	hl, sp
   1240 EB            [ 4] 2890 	ex	de, hl
   1241 DD 73 FE      [19] 2891 	ld	-2 (ix), e
   1244 DD 72 FF      [19] 2892 	ld	-1 (ix), d
   1247 C5            [11] 2893 	push	bc
   1248 D5            [11] 2894 	push	de
   1249 21 07 00      [10] 2895 	ld	hl, #0x0007
   124C E5            [11] 2896 	push	hl
   124D 21rDCr13      [10] 2897 	ld	hl, #___str_85
   1250 E5            [11] 2898 	push	hl
   1251 DD 6E FE      [19] 2899 	ld	l, -2 (ix)
   1254 DD 66 FF      [19] 2900 	ld	h, -1 (ix)
   1257 E5            [11] 2901 	push	hl
   1258 CDr00r00      [17] 2902 	call	_memcpy
   125B F1            [10] 2903 	pop	af
   125C F1            [10] 2904 	pop	af
   125D F1            [10] 2905 	pop	af
   125E D1            [10] 2906 	pop	de
   125F C1            [10] 2907 	pop	bc
                           2908 ;e4vm.c:446: e4vm_utils_add_op_from_string(v, (void*)_str__83);
   1260 C5            [11] 2909 	push	bc
   1261 D5            [11] 2910 	push	de
   1262 C5            [11] 2911 	push	bc
   1263 CDr00r00      [17] 2912 	call	_e4vm_utils_add_op_from_string
   1266 F1            [10] 2913 	pop	af
   1267 F1            [10] 2914 	pop	af
   1268 C1            [10] 2915 	pop	bc
                           2916 ;e4vm.c:447: __MOVE((CHAR*)"not", _str__82, 4);
   1269 21 0A 00      [10] 2917 	ld	hl, #10
   126C 39            [11] 2918 	add	hl, sp
   126D EB            [ 4] 2919 	ex	de, hl
   126E DD 73 FE      [19] 2920 	ld	-2 (ix), e
   1271 DD 72 FF      [19] 2921 	ld	-1 (ix), d
   1274 C5            [11] 2922 	push	bc
   1275 D5            [11] 2923 	push	de
   1276 21 04 00      [10] 2924 	ld	hl, #0x0004
   1279 E5            [11] 2925 	push	hl
   127A 21rE3r13      [10] 2926 	ld	hl, #___str_86
   127D E5            [11] 2927 	push	hl
   127E DD 6E FE      [19] 2928 	ld	l, -2 (ix)
   1281 DD 66 FF      [19] 2929 	ld	h, -1 (ix)
   1284 E5            [11] 2930 	push	hl
   1285 CDr00r00      [17] 2931 	call	_memcpy
   1288 F1            [10] 2932 	pop	af
   1289 F1            [10] 2933 	pop	af
   128A F1            [10] 2934 	pop	af
   128B DD 6E 04      [19] 2935 	ld	l, 4 (ix)
   128E DD 66 05      [19] 2936 	ld	h, 5 (ix)
   1291 E5            [11] 2937 	push	hl
   1292 CDr00r00      [17] 2938 	call	_e4vm_utils_add_op_from_string
   1295 F1            [10] 2939 	pop	af
   1296 F1            [10] 2940 	pop	af
   1297 C1            [10] 2941 	pop	bc
                           2942 ;e4vm.c:449: __MOVE((CHAR*)"exit", _str__81, 5);
   1298 21 14 00      [10] 2943 	ld	hl, #20
   129B 39            [11] 2944 	add	hl, sp
   129C EB            [ 4] 2945 	ex	de, hl
   129D DD 73 FE      [19] 2946 	ld	-2 (ix), e
   12A0 DD 72 FF      [19] 2947 	ld	-1 (ix), d
   12A3 C5            [11] 2948 	push	bc
   12A4 D5            [11] 2949 	push	de
   12A5 21 05 00      [10] 2950 	ld	hl, #0x0005
   12A8 E5            [11] 2951 	push	hl
   12A9 21rE7r13      [10] 2952 	ld	hl, #___str_87
   12AC E5            [11] 2953 	push	hl
   12AD DD 6E FE      [19] 2954 	ld	l, -2 (ix)
   12B0 DD 66 FF      [19] 2955 	ld	h, -1 (ix)
   12B3 E5            [11] 2956 	push	hl
   12B4 CDr00r00      [17] 2957 	call	_memcpy
   12B7 F1            [10] 2958 	pop	af
   12B8 F1            [10] 2959 	pop	af
   12B9 F1            [10] 2960 	pop	af
   12BA DD 6E 04      [19] 2961 	ld	l, 4 (ix)
   12BD DD 66 05      [19] 2962 	ld	h, 5 (ix)
   12C0 E5            [11] 2963 	push	hl
   12C1 CDr00r00      [17] 2964 	call	_e4vm_utils_add_op_from_string
   12C4 F1            [10] 2965 	pop	af
   12C5 21r0Fr03      [10] 2966 	ld	hl, #_e4vm_vm
   12C8 E3            [19] 2967 	ex	(sp),hl
   12C9 CDr00r00      [17] 2968 	call	_e4vm_utils_true_const
   12CC E3            [19] 2969 	ex	(sp),hl
   12CD DD 6E 04      [19] 2970 	ld	l, 4 (ix)
   12D0 DD 66 05      [19] 2971 	ld	h, 5 (ix)
   12D3 E5            [11] 2972 	push	hl
   12D4 CDr00r00      [17] 2973 	call	_e4vm_utils_stack_ds_push
   12D7 F1            [10] 2974 	pop	af
   12D8 F1            [10] 2975 	pop	af
   12D9 C1            [10] 2976 	pop	bc
                           2977 ;e4vm.c:452: (*v)->wp = start_addr;
   12DA 69            [ 4] 2978 	ld	l, c
   12DB 60            [ 4] 2979 	ld	h, b
   12DC 5E            [ 7] 2980 	ld	e, (hl)
   12DD 23            [ 6] 2981 	inc	hl
   12DE 56            [ 7] 2982 	ld	d, (hl)
   12DF 13            [ 6] 2983 	inc	de
   12E0 13            [ 6] 2984 	inc	de
   12E1 DD 7E FC      [19] 2985 	ld	a, -4 (ix)
   12E4 12            [ 7] 2986 	ld	(de), a
   12E5 13            [ 6] 2987 	inc	de
   12E6 DD 7E FD      [19] 2988 	ld	a, -3 (ix)
   12E9 12            [ 7] 2989 	ld	(de), a
                           2990 ;e4vm.c:453: e4vm_core_do_list(v);
   12EA C5            [11] 2991 	push	bc
   12EB C5            [11] 2992 	push	bc
   12EC CDr00r00      [17] 2993 	call	_e4vm_core_do_list
   12EF F1            [10] 2994 	pop	af
   12F0 DD 6E 04      [19] 2995 	ld	l, 4 (ix)
   12F3 DD 66 05      [19] 2996 	ld	h, 5 (ix)
   12F6 E5            [11] 2997 	push	hl
   12F7 CDr00r00      [17] 2998 	call	_e4vm_core_do_next
   12FA F1            [10] 2999 	pop	af
   12FB C1            [10] 3000 	pop	bc
                           3001 ;e4vm.c:455: if ((*v)->ds[0] == e4vm_utils_false_const(&e4vm_vm)) {
   12FC 69            [ 4] 3002 	ld	l, c
   12FD 60            [ 4] 3003 	ld	h, b
   12FE 5E            [ 7] 3004 	ld	e, (hl)
   12FF 23            [ 6] 3005 	inc	hl
   1300 56            [ 7] 3006 	ld	d, (hl)
   1301 C5            [11] 3007 	push	bc
   1302 D5            [11] 3008 	push	de
   1303 21r0Fr03      [10] 3009 	ld	hl, #_e4vm_vm
   1306 E5            [11] 3010 	push	hl
   1307 CDr00r00      [17] 3011 	call	_e4vm_utils_false_const
   130A F1            [10] 3012 	pop	af
   130B DD 75 FE      [19] 3013 	ld	-2 (ix), l
   130E DD 74 FF      [19] 3014 	ld	-1 (ix), h
   1311 D1            [10] 3015 	pop	de
   1312 C1            [10] 3016 	pop	bc
   1313 EB            [ 4] 3017 	ex	de,hl
   1314 11 44 00      [10] 3018 	ld	de, #0x0044
   1317 19            [11] 3019 	add	hl, de
   1318 5E            [ 7] 3020 	ld	e, (hl)
   1319 23            [ 6] 3021 	inc	hl
   131A 56            [ 7] 3022 	ld	d, (hl)
   131B DD 6E FE      [19] 3023 	ld	l, -2 (ix)
   131E DD 66 FF      [19] 3024 	ld	h, -1 (ix)
   1321 BF            [ 4] 3025 	cp	a, a
   1322 ED 52         [15] 3026 	sbc	hl, de
   1324 20 0A         [12] 3027 	jr	NZ,00102$
                           3028 ;e4vm.c:456: Console_WriteStr((CHAR*)" - ok", 6);
   1326 C5            [11] 3029 	push	bc
   1327 21rECr13      [10] 3030 	ld	hl, #___str_88
   132A CDr00r00      [17] 3031 	call	_Console_WriteStr_C_COMPACT
   132D C1            [10] 3032 	pop	bc
   132E 18 08         [12] 3033 	jr	00103$
   1330                    3034 00102$:
                           3035 ;e4vm.c:458: Console_WriteStr((CHAR*)" - error", 9);
   1330 C5            [11] 3036 	push	bc
   1331 21rF2r13      [10] 3037 	ld	hl, #___str_89
   1334 CDr00r00      [17] 3038 	call	_Console_WriteStr_C_COMPACT
   1337 C1            [10] 3039 	pop	bc
   1338                    3040 00103$:
                           3041 ;e4vm.c:460: (*v)->wp = start_addr;
   1338 69            [ 4] 3042 	ld	l, c
   1339 60            [ 4] 3043 	ld	h, b
   133A 5E            [ 7] 3044 	ld	e, (hl)
   133B 23            [ 6] 3045 	inc	hl
   133C 56            [ 7] 3046 	ld	d, (hl)
   133D 13            [ 6] 3047 	inc	de
   133E 13            [ 6] 3048 	inc	de
   133F DD 7E FC      [19] 3049 	ld	a, -4 (ix)
   1342 12            [ 7] 3050 	ld	(de), a
   1343 13            [ 6] 3051 	inc	de
   1344 DD 7E FD      [19] 3052 	ld	a, -3 (ix)
   1347 12            [ 7] 3053 	ld	(de), a
                           3054 ;e4vm.c:461: e4vm_core_do_list(v);
   1348 C5            [11] 3055 	push	bc
   1349 C5            [11] 3056 	push	bc
   134A CDr00r00      [17] 3057 	call	_e4vm_core_do_list
   134D F1            [10] 3058 	pop	af
   134E DD 6E 04      [19] 3059 	ld	l, 4 (ix)
   1351 DD 66 05      [19] 3060 	ld	h, 5 (ix)
   1354 E5            [11] 3061 	push	hl
   1355 CDr00r00      [17] 3062 	call	_e4vm_core_do_next
   1358 F1            [10] 3063 	pop	af
   1359 C1            [10] 3064 	pop	bc
                           3065 ;e4vm.c:463: if ((*v)->ds[0] == e4vm_utils_true_const(&e4vm_vm)) {
   135A 69            [ 4] 3066 	ld	l, c
   135B 60            [ 4] 3067 	ld	h, b
   135C 5E            [ 7] 3068 	ld	e, (hl)
   135D 23            [ 6] 3069 	inc	hl
   135E 56            [ 7] 3070 	ld	d, (hl)
   135F C5            [11] 3071 	push	bc
   1360 D5            [11] 3072 	push	de
   1361 21r0Fr03      [10] 3073 	ld	hl, #_e4vm_vm
   1364 E5            [11] 3074 	push	hl
   1365 CDr00r00      [17] 3075 	call	_e4vm_utils_true_const
   1368 F1            [10] 3076 	pop	af
   1369 DD 75 FE      [19] 3077 	ld	-2 (ix), l
   136C DD 74 FF      [19] 3078 	ld	-1 (ix), h
   136F D1            [10] 3079 	pop	de
   1370 C1            [10] 3080 	pop	bc
   1371 EB            [ 4] 3081 	ex	de,hl
   1372 11 44 00      [10] 3082 	ld	de, #0x0044
   1375 19            [11] 3083 	add	hl, de
   1376 5E            [ 7] 3084 	ld	e, (hl)
   1377 23            [ 6] 3085 	inc	hl
   1378 56            [ 7] 3086 	ld	d, (hl)
   1379 DD 6E FE      [19] 3087 	ld	l, -2 (ix)
   137C DD 66 FF      [19] 3088 	ld	h, -1 (ix)
   137F BF            [ 4] 3089 	cp	a, a
   1380 ED 52         [15] 3090 	sbc	hl, de
   1382 20 0A         [12] 3091 	jr	NZ,00105$
                           3092 ;e4vm.c:464: Console_WriteStr((CHAR*)" - ok", 6);
   1384 C5            [11] 3093 	push	bc
   1385 21rECr13      [10] 3094 	ld	hl, #___str_88
   1388 CDr00r00      [17] 3095 	call	_Console_WriteStr_C_COMPACT
   138B C1            [10] 3096 	pop	bc
   138C 18 08         [12] 3097 	jr	00106$
   138E                    3098 00105$:
                           3099 ;e4vm.c:466: Console_WriteStr((CHAR*)" - error", 9);
   138E C5            [11] 3100 	push	bc
   138F 21rF2r13      [10] 3101 	ld	hl, #___str_89
   1392 CDr00r00      [17] 3102 	call	_Console_WriteStr_C_COMPACT
   1395 C1            [10] 3103 	pop	bc
   1396                    3104 00106$:
                           3105 ;e4vm.c:468: (*v)->ds[0] = 2;
   1396 69            [ 4] 3106 	ld	l, c
   1397 60            [ 4] 3107 	ld	h, b
   1398 5E            [ 7] 3108 	ld	e, (hl)
   1399 23            [ 6] 3109 	inc	hl
   139A 56            [ 7] 3110 	ld	d, (hl)
   139B 21 44 00      [10] 3111 	ld	hl, #0x0044
   139E 19            [11] 3112 	add	hl, de
   139F 36 02         [10] 3113 	ld	(hl), #0x02
   13A1 23            [ 6] 3114 	inc	hl
   13A2 36 00         [10] 3115 	ld	(hl), #0x00
                           3116 ;e4vm.c:469: (*v)->wp = start_addr;
   13A4 69            [ 4] 3117 	ld	l, c
   13A5 60            [ 4] 3118 	ld	h, b
   13A6 5E            [ 7] 3119 	ld	e, (hl)
   13A7 23            [ 6] 3120 	inc	hl
   13A8 56            [ 7] 3121 	ld	d, (hl)
   13A9 13            [ 6] 3122 	inc	de
   13AA 13            [ 6] 3123 	inc	de
   13AB DD 7E FC      [19] 3124 	ld	a, -4 (ix)
   13AE 12            [ 7] 3125 	ld	(de), a
   13AF 13            [ 6] 3126 	inc	de
   13B0 DD 7E FD      [19] 3127 	ld	a, -3 (ix)
   13B3 12            [ 7] 3128 	ld	(de), a
                           3129 ;e4vm.c:470: e4vm_core_do_list(v);
   13B4 C5            [11] 3130 	push	bc
   13B5 CDr00r00      [17] 3131 	call	_e4vm_core_do_list
   13B8 F1            [10] 3132 	pop	af
                           3133 ;e4vm.c:471: e4vm_core_do_next(v);
   13B9 DD 6E 04      [19] 3134 	ld	l, 4 (ix)
   13BC DD 66 05      [19] 3135 	ld	h, 5 (ix)
   13BF E5            [11] 3136 	push	hl
   13C0 CDr00r00      [17] 3137 	call	_e4vm_core_do_next
   13C3 F1            [10] 3138 	pop	af
                           3139 ;e4vm.c:472: Console_WriteStrLn((CHAR*)" - ok", 6);
   13C4 21rECr13      [10] 3140 	ld	hl, #___str_88
   13C7 CDr00r00      [17] 3141 	call	_Console_WriteStr_C_COMPACT
   13CA CDr00r00      [17] 3142 	call	_Console_WriteLn_COMPACT
                           3143 ;e4vm.c:473: }
   13CD DD F9         [10] 3144 	ld	sp, ix
   13CF DD E1         [14] 3145 	pop	ix
   13D1 C9            [10] 3146 	ret
   13D2                    3147 ___str_84:
   13D2 54 65 73 74 20 6E  3148 	.ascii "Test not "
        6F 74 20
   13DB 00                 3149 	.db 0x00
   13DC                    3150 ___str_85:
   13DC 64 6F 6C 69 73 74  3151 	.ascii "dolist"
   13E2 00                 3152 	.db 0x00
   13E3                    3153 ___str_86:
   13E3 6E 6F 74           3154 	.ascii "not"
   13E6 00                 3155 	.db 0x00
   13E7                    3156 ___str_87:
   13E7 65 78 69 74        3157 	.ascii "exit"
   13EB 00                 3158 	.db 0x00
   13EC                    3159 ___str_88:
   13EC 20 2D 20 6F 6B     3160 	.ascii " - ok"
   13F1 00                 3161 	.db 0x00
   13F2                    3162 ___str_89:
   13F2 20 2D 20 65 72 72  3163 	.ascii " - error"
        6F 72
   13FA 00                 3164 	.db 0x00
                           3165 ;e4vm.c:475: static void e4vm_test_invert (e4vm_type_x4thPtr *v)
                           3166 ;	---------------------------------
                           3167 ; Function e4vm_test_invert
                           3168 ; ---------------------------------
   13FB                    3169 _e4vm_test_invert:
   13FB CDr00r00      [17] 3170 	call	___sdcc_enter_ix
   13FE 21 E2 FF      [10] 3171 	ld	hl, #-30
   1401 39            [11] 3172 	add	hl, sp
   1402 F9            [ 6] 3173 	ld	sp, hl
                           3174 ;e4vm.c:480: Console_WriteStr((CHAR*)"Test invert ", 13);
   1403 21r02r15      [10] 3175 	ld	hl, #___str_90
   1406 CDr00r00      [17] 3176 	call	_Console_WriteStr_C_COMPACT
                           3177 ;e4vm.c:481: e4vm_utils_init(v);
   1409 DD 6E 04      [19] 3178 	ld	l, 4 (ix)
   140C DD 66 05      [19] 3179 	ld	h, 5 (ix)
   140F E5            [11] 3180 	push	hl
   1410 CDr00r00      [17] 3181 	call	_e4vm_utils_init
   1413 F1            [10] 3182 	pop	af
                           3183 ;e4vm.c:482: e4vm_core_add_core_words(v);
   1414 DD 6E 04      [19] 3184 	ld	l, 4 (ix)
   1417 DD 66 05      [19] 3185 	ld	h, 5 (ix)
   141A E5            [11] 3186 	push	hl
   141B CDr00r00      [17] 3187 	call	_e4vm_core_add_core_words
   141E F1            [10] 3188 	pop	af
                           3189 ;e4vm.c:483: e4vm_boolean_add_core_words(v);
   141F DD 6E 04      [19] 3190 	ld	l, 4 (ix)
   1422 DD 66 05      [19] 3191 	ld	h, 5 (ix)
   1425 E5            [11] 3192 	push	hl
   1426 CDr00r00      [17] 3193 	call	_e4vm_boolean_add_core_words
   1429 F1            [10] 3194 	pop	af
                           3195 ;e4vm.c:484: e4vm_utils_here_to_wp(v);
   142A DD 6E 04      [19] 3196 	ld	l, 4 (ix)
   142D DD 66 05      [19] 3197 	ld	h, 5 (ix)
   1430 E5            [11] 3198 	push	hl
   1431 CDr00r00      [17] 3199 	call	_e4vm_utils_here_to_wp
   1434 F1            [10] 3200 	pop	af
                           3201 ;e4vm.c:485: __MOVE((CHAR*)"dolist", _str__70, 7);
   1435 21 00 00      [10] 3202 	ld	hl, #0
   1438 39            [11] 3203 	add	hl, sp
   1439 EB            [ 4] 3204 	ex	de, hl
   143A 4B            [ 4] 3205 	ld	c, e
   143B 42            [ 4] 3206 	ld	b, d
   143C D5            [11] 3207 	push	de
   143D 21 07 00      [10] 3208 	ld	hl, #0x0007
   1440 E5            [11] 3209 	push	hl
   1441 21r0Fr15      [10] 3210 	ld	hl, #___str_91
   1444 E5            [11] 3211 	push	hl
   1445 C5            [11] 3212 	push	bc
   1446 CDr00r00      [17] 3213 	call	_memcpy
   1449 F1            [10] 3214 	pop	af
   144A F1            [10] 3215 	pop	af
   144B F1            [10] 3216 	pop	af
   144C DD 6E 04      [19] 3217 	ld	l, 4 (ix)
   144F DD 66 05      [19] 3218 	ld	h, 5 (ix)
   1452 E5            [11] 3219 	push	hl
   1453 CDr00r00      [17] 3220 	call	_e4vm_utils_add_op_from_string
   1456 F1            [10] 3221 	pop	af
   1457 F1            [10] 3222 	pop	af
                           3223 ;e4vm.c:487: __MOVE((CHAR*)"invert", _str__69, 7);
   1458 21 0A 00      [10] 3224 	ld	hl, #10
   145B 39            [11] 3225 	add	hl, sp
   145C EB            [ 4] 3226 	ex	de, hl
   145D 4B            [ 4] 3227 	ld	c, e
   145E 42            [ 4] 3228 	ld	b, d
   145F D5            [11] 3229 	push	de
   1460 21 07 00      [10] 3230 	ld	hl, #0x0007
   1463 E5            [11] 3231 	push	hl
   1464 21r16r15      [10] 3232 	ld	hl, #___str_92
   1467 E5            [11] 3233 	push	hl
   1468 C5            [11] 3234 	push	bc
   1469 CDr00r00      [17] 3235 	call	_memcpy
   146C F1            [10] 3236 	pop	af
   146D F1            [10] 3237 	pop	af
   146E F1            [10] 3238 	pop	af
   146F DD 6E 04      [19] 3239 	ld	l, 4 (ix)
   1472 DD 66 05      [19] 3240 	ld	h, 5 (ix)
   1475 E5            [11] 3241 	push	hl
   1476 CDr00r00      [17] 3242 	call	_e4vm_utils_add_op_from_string
   1479 F1            [10] 3243 	pop	af
   147A F1            [10] 3244 	pop	af
                           3245 ;e4vm.c:489: __MOVE((CHAR*)"exit", _str__68, 5);
   147B 21 14 00      [10] 3246 	ld	hl, #20
   147E 39            [11] 3247 	add	hl, sp
   147F EB            [ 4] 3248 	ex	de, hl
   1480 4B            [ 4] 3249 	ld	c, e
   1481 42            [ 4] 3250 	ld	b, d
   1482 D5            [11] 3251 	push	de
   1483 21 05 00      [10] 3252 	ld	hl, #0x0005
   1486 E5            [11] 3253 	push	hl
   1487 21r1Dr15      [10] 3254 	ld	hl, #___str_93
   148A E5            [11] 3255 	push	hl
   148B C5            [11] 3256 	push	bc
   148C CDr00r00      [17] 3257 	call	_memcpy
   148F F1            [10] 3258 	pop	af
   1490 F1            [10] 3259 	pop	af
   1491 F1            [10] 3260 	pop	af
   1492 DD 6E 04      [19] 3261 	ld	l, 4 (ix)
   1495 DD 66 05      [19] 3262 	ld	h, 5 (ix)
   1498 E5            [11] 3263 	push	hl
   1499 CDr00r00      [17] 3264 	call	_e4vm_utils_add_op_from_string
   149C F1            [10] 3265 	pop	af
                           3266 ;e4vm.c:491: e4vm_utils_stack_ds_push(v, 15);
   149D 21 0F 00      [10] 3267 	ld	hl, #0x000f
   14A0 E3            [19] 3268 	ex	(sp),hl
   14A1 DD 6E 04      [19] 3269 	ld	l, 4 (ix)
   14A4 DD 66 05      [19] 3270 	ld	h, 5 (ix)
   14A7 E5            [11] 3271 	push	hl
   14A8 CDr00r00      [17] 3272 	call	_e4vm_utils_stack_ds_push
   14AB F1            [10] 3273 	pop	af
   14AC F1            [10] 3274 	pop	af
                           3275 ;e4vm.c:492: e4vm_core_do_list(v);
   14AD DD 6E 04      [19] 3276 	ld	l, 4 (ix)
   14B0 DD 66 05      [19] 3277 	ld	h, 5 (ix)
   14B3 E5            [11] 3278 	push	hl
   14B4 CDr00r00      [17] 3279 	call	_e4vm_core_do_list
   14B7 F1            [10] 3280 	pop	af
                           3281 ;e4vm.c:493: e4vm_core_do_next(v);
   14B8 DD 6E 04      [19] 3282 	ld	l, 4 (ix)
   14BB DD 66 05      [19] 3283 	ld	h, 5 (ix)
   14BE E5            [11] 3284 	push	hl
   14BF CDr00r00      [17] 3285 	call	_e4vm_core_do_next
   14C2 F1            [10] 3286 	pop	af
                           3287 ;e4vm.c:494: if ((*v)->ds[(*v)->ds_p - 1] == -16) {
   14C3 DD 6E 04      [19] 3288 	ld	l, 4 (ix)
   14C6 DD 66 05      [19] 3289 	ld	h, 5 (ix)
   14C9 4E            [ 7] 3290 	ld	c, (hl)
   14CA 23            [ 6] 3291 	inc	hl
   14CB 46            [ 7] 3292 	ld	b, (hl)
   14CC 21 44 00      [10] 3293 	ld	hl, #0x0044
   14CF 09            [11] 3294 	add	hl, bc
   14D0 EB            [ 4] 3295 	ex	de, hl
   14D1 69            [ 4] 3296 	ld	l, c
   14D2 60            [ 4] 3297 	ld	h, b
   14D3 01 86 00      [10] 3298 	ld	bc, #0x0086
   14D6 09            [11] 3299 	add	hl, bc
   14D7 7E            [ 7] 3300 	ld	a, (hl)
   14D8 3D            [ 4] 3301 	dec	a
   14D9 87            [ 4] 3302 	add	a, a
   14DA 6F            [ 4] 3303 	ld	l, a
   14DB 26 00         [ 7] 3304 	ld	h, #0x00
   14DD 19            [11] 3305 	add	hl, de
   14DE 4E            [ 7] 3306 	ld	c, (hl)
   14DF 23            [ 6] 3307 	inc	hl
   14E0 46            [ 7] 3308 	ld	b, (hl)
   14E1 79            [ 4] 3309 	ld	a, c
   14E2 D6 F0         [ 7] 3310 	sub	a, #0xf0
   14E4 20 0E         [12] 3311 	jr	NZ,00102$
   14E6 04            [ 4] 3312 	inc	b
   14E7 20 0B         [12] 3313 	jr	NZ,00102$
                           3314 ;e4vm.c:495: Console_WriteStrLn((CHAR*)" - ok", 6);
   14E9 21r22r15      [10] 3315 	ld	hl, #___str_94
   14EC CDr00r00      [17] 3316 	call	_Console_WriteStr_C_COMPACT
   14EF CDr00r00      [17] 3317 	call	_Console_WriteLn_COMPACT
   14F2 18 09         [12] 3318 	jr	00104$
   14F4                    3319 00102$:
                           3320 ;e4vm.c:497: Console_WriteStrLn((CHAR*)" - error", 9);
   14F4 21r28r15      [10] 3321 	ld	hl, #___str_95
   14F7 CDr00r00      [17] 3322 	call	_Console_WriteStr_C_COMPACT
   14FA CDr00r00      [17] 3323 	call	_Console_WriteLn_COMPACT
   14FD                    3324 00104$:
                           3325 ;e4vm.c:499: }
   14FD DD F9         [10] 3326 	ld	sp, ix
   14FF DD E1         [14] 3327 	pop	ix
   1501 C9            [10] 3328 	ret
   1502                    3329 ___str_90:
   1502 54 65 73 74 20 69  3330 	.ascii "Test invert "
        6E 76 65 72 74 20
   150E 00                 3331 	.db 0x00
   150F                    3332 ___str_91:
   150F 64 6F 6C 69 73 74  3333 	.ascii "dolist"
   1515 00                 3334 	.db 0x00
   1516                    3335 ___str_92:
   1516 69 6E 76 65 72 74  3336 	.ascii "invert"
   151C 00                 3337 	.db 0x00
   151D                    3338 ___str_93:
   151D 65 78 69 74        3339 	.ascii "exit"
   1521 00                 3340 	.db 0x00
   1522                    3341 ___str_94:
   1522 20 2D 20 6F 6B     3342 	.ascii " - ok"
   1527 00                 3343 	.db 0x00
   1528                    3344 ___str_95:
   1528 20 2D 20 65 72 72  3345 	.ascii " - error"
        6F 72
   1530 00                 3346 	.db 0x00
                           3347 ;e4vm.c:501: static void e4vm_test_or (e4vm_type_x4thPtr *v)
                           3348 ;	---------------------------------
                           3349 ; Function e4vm_test_or
                           3350 ; ---------------------------------
   1531                    3351 _e4vm_test_or:
   1531 CDr00r00      [17] 3352 	call	___sdcc_enter_ix
   1534 21 E2 FF      [10] 3353 	ld	hl, #-30
   1537 39            [11] 3354 	add	hl, sp
   1538 F9            [ 6] 3355 	ld	sp, hl
                           3356 ;e4vm.c:506: Console_WriteStr((CHAR*)"Test or ", 9);
   1539 21r38r16      [10] 3357 	ld	hl, #___str_96
   153C CDr00r00      [17] 3358 	call	_Console_WriteStr_C_COMPACT
                           3359 ;e4vm.c:507: e4vm_utils_init(v);
   153F DD 6E 04      [19] 3360 	ld	l, 4 (ix)
   1542 DD 66 05      [19] 3361 	ld	h, 5 (ix)
   1545 E5            [11] 3362 	push	hl
   1546 CDr00r00      [17] 3363 	call	_e4vm_utils_init
   1549 F1            [10] 3364 	pop	af
                           3365 ;e4vm.c:508: e4vm_core_add_core_words(v);
   154A DD 6E 04      [19] 3366 	ld	l, 4 (ix)
   154D DD 66 05      [19] 3367 	ld	h, 5 (ix)
   1550 E5            [11] 3368 	push	hl
   1551 CDr00r00      [17] 3369 	call	_e4vm_core_add_core_words
   1554 F1            [10] 3370 	pop	af
                           3371 ;e4vm.c:509: e4vm_boolean_add_core_words(v);
   1555 DD 6E 04      [19] 3372 	ld	l, 4 (ix)
   1558 DD 66 05      [19] 3373 	ld	h, 5 (ix)
   155B E5            [11] 3374 	push	hl
   155C CDr00r00      [17] 3375 	call	_e4vm_boolean_add_core_words
   155F F1            [10] 3376 	pop	af
                           3377 ;e4vm.c:510: e4vm_utils_here_to_wp(v);
   1560 DD 6E 04      [19] 3378 	ld	l, 4 (ix)
   1563 DD 66 05      [19] 3379 	ld	h, 5 (ix)
   1566 E5            [11] 3380 	push	hl
   1567 CDr00r00      [17] 3381 	call	_e4vm_utils_here_to_wp
   156A F1            [10] 3382 	pop	af
                           3383 ;e4vm.c:511: __MOVE((CHAR*)"dolist", _str__91, 7);
   156B 21 00 00      [10] 3384 	ld	hl, #0
   156E 39            [11] 3385 	add	hl, sp
   156F EB            [ 4] 3386 	ex	de, hl
   1570 4B            [ 4] 3387 	ld	c, e
   1571 42            [ 4] 3388 	ld	b, d
   1572 D5            [11] 3389 	push	de
   1573 21 07 00      [10] 3390 	ld	hl, #0x0007
   1576 E5            [11] 3391 	push	hl
   1577 21r41r16      [10] 3392 	ld	hl, #___str_97
   157A E5            [11] 3393 	push	hl
   157B C5            [11] 3394 	push	bc
   157C CDr00r00      [17] 3395 	call	_memcpy
   157F F1            [10] 3396 	pop	af
   1580 F1            [10] 3397 	pop	af
   1581 F1            [10] 3398 	pop	af
   1582 DD 6E 04      [19] 3399 	ld	l, 4 (ix)
   1585 DD 66 05      [19] 3400 	ld	h, 5 (ix)
   1588 E5            [11] 3401 	push	hl
   1589 CDr00r00      [17] 3402 	call	_e4vm_utils_add_op_from_string
   158C F1            [10] 3403 	pop	af
   158D F1            [10] 3404 	pop	af
                           3405 ;e4vm.c:513: __MOVE((CHAR*)"or", _str__90, 3);
   158E 21 0A 00      [10] 3406 	ld	hl, #10
   1591 39            [11] 3407 	add	hl, sp
   1592 EB            [ 4] 3408 	ex	de, hl
   1593 4B            [ 4] 3409 	ld	c, e
   1594 42            [ 4] 3410 	ld	b, d
   1595 D5            [11] 3411 	push	de
   1596 21 03 00      [10] 3412 	ld	hl, #0x0003
   1599 E5            [11] 3413 	push	hl
   159A 21r48r16      [10] 3414 	ld	hl, #___str_98
   159D E5            [11] 3415 	push	hl
   159E C5            [11] 3416 	push	bc
   159F CDr00r00      [17] 3417 	call	_memcpy
   15A2 F1            [10] 3418 	pop	af
   15A3 F1            [10] 3419 	pop	af
   15A4 F1            [10] 3420 	pop	af
   15A5 DD 6E 04      [19] 3421 	ld	l, 4 (ix)
   15A8 DD 66 05      [19] 3422 	ld	h, 5 (ix)
   15AB E5            [11] 3423 	push	hl
   15AC CDr00r00      [17] 3424 	call	_e4vm_utils_add_op_from_string
   15AF F1            [10] 3425 	pop	af
   15B0 F1            [10] 3426 	pop	af
                           3427 ;e4vm.c:515: __MOVE((CHAR*)"exit", _str__89, 5);
   15B1 21 14 00      [10] 3428 	ld	hl, #20
   15B4 39            [11] 3429 	add	hl, sp
   15B5 EB            [ 4] 3430 	ex	de, hl
   15B6 4B            [ 4] 3431 	ld	c, e
   15B7 42            [ 4] 3432 	ld	b, d
   15B8 D5            [11] 3433 	push	de
   15B9 21 05 00      [10] 3434 	ld	hl, #0x0005
   15BC E5            [11] 3435 	push	hl
   15BD 21r4Br16      [10] 3436 	ld	hl, #___str_99
   15C0 E5            [11] 3437 	push	hl
   15C1 C5            [11] 3438 	push	bc
   15C2 CDr00r00      [17] 3439 	call	_memcpy
   15C5 F1            [10] 3440 	pop	af
   15C6 F1            [10] 3441 	pop	af
   15C7 F1            [10] 3442 	pop	af
   15C8 DD 6E 04      [19] 3443 	ld	l, 4 (ix)
   15CB DD 66 05      [19] 3444 	ld	h, 5 (ix)
   15CE E5            [11] 3445 	push	hl
   15CF CDr00r00      [17] 3446 	call	_e4vm_utils_add_op_from_string
   15D2 F1            [10] 3447 	pop	af
                           3448 ;e4vm.c:517: e4vm_utils_stack_ds_push(v, 1);
   15D3 21 01 00      [10] 3449 	ld	hl, #0x0001
   15D6 E3            [19] 3450 	ex	(sp),hl
   15D7 DD 6E 04      [19] 3451 	ld	l, 4 (ix)
   15DA DD 66 05      [19] 3452 	ld	h, 5 (ix)
   15DD E5            [11] 3453 	push	hl
   15DE CDr00r00      [17] 3454 	call	_e4vm_utils_stack_ds_push
   15E1 F1            [10] 3455 	pop	af
                           3456 ;e4vm.c:518: e4vm_utils_stack_ds_push(v, 2);
   15E2 21 02 00      [10] 3457 	ld	hl, #0x0002
   15E5 E3            [19] 3458 	ex	(sp),hl
   15E6 DD 6E 04      [19] 3459 	ld	l, 4 (ix)
   15E9 DD 66 05      [19] 3460 	ld	h, 5 (ix)
   15EC E5            [11] 3461 	push	hl
   15ED CDr00r00      [17] 3462 	call	_e4vm_utils_stack_ds_push
   15F0 F1            [10] 3463 	pop	af
   15F1 F1            [10] 3464 	pop	af
                           3465 ;e4vm.c:519: e4vm_core_do_list(v);
   15F2 DD 6E 04      [19] 3466 	ld	l, 4 (ix)
   15F5 DD 66 05      [19] 3467 	ld	h, 5 (ix)
   15F8 E5            [11] 3468 	push	hl
   15F9 CDr00r00      [17] 3469 	call	_e4vm_core_do_list
   15FC F1            [10] 3470 	pop	af
                           3471 ;e4vm.c:520: e4vm_core_do_next(v);
   15FD DD 6E 04      [19] 3472 	ld	l, 4 (ix)
   1600 DD 66 05      [19] 3473 	ld	h, 5 (ix)
   1603 E5            [11] 3474 	push	hl
   1604 CDr00r00      [17] 3475 	call	_e4vm_core_do_next
   1607 F1            [10] 3476 	pop	af
                           3477 ;e4vm.c:521: if ((*v)->ds[0] == 3) {
   1608 DD 6E 04      [19] 3478 	ld	l, 4 (ix)
   160B DD 66 05      [19] 3479 	ld	h, 5 (ix)
   160E 7E            [ 7] 3480 	ld	a, (hl)
   160F 23            [ 6] 3481 	inc	hl
   1610 66            [ 7] 3482 	ld	h, (hl)
   1611 6F            [ 4] 3483 	ld	l, a
   1612 11 44 00      [10] 3484 	ld	de, #0x0044
   1615 19            [11] 3485 	add	hl, de
   1616 4E            [ 7] 3486 	ld	c, (hl)
   1617 23            [ 6] 3487 	inc	hl
   1618 46            [ 7] 3488 	ld	b, (hl)
   1619 79            [ 4] 3489 	ld	a, c
   161A D6 03         [ 7] 3490 	sub	a, #0x03
   161C B0            [ 4] 3491 	or	a, b
   161D 20 0B         [12] 3492 	jr	NZ,00102$
                           3493 ;e4vm.c:522: Console_WriteStrLn((CHAR*)" - ok", 6);
   161F 21r50r16      [10] 3494 	ld	hl, #___str_100
   1622 CDr00r00      [17] 3495 	call	_Console_WriteStr_C_COMPACT
   1625 CDr00r00      [17] 3496 	call	_Console_WriteLn_COMPACT
   1628 18 09         [12] 3497 	jr	00104$
   162A                    3498 00102$:
                           3499 ;e4vm.c:524: Console_WriteStrLn((CHAR*)" - error", 9);
   162A 21r56r16      [10] 3500 	ld	hl, #___str_101
   162D CDr00r00      [17] 3501 	call	_Console_WriteStr_C_COMPACT
   1630 CDr00r00      [17] 3502 	call	_Console_WriteLn_COMPACT
   1633                    3503 00104$:
                           3504 ;e4vm.c:526: }
   1633 DD F9         [10] 3505 	ld	sp, ix
   1635 DD E1         [14] 3506 	pop	ix
   1637 C9            [10] 3507 	ret
   1638                    3508 ___str_96:
   1638 54 65 73 74 20 6F  3509 	.ascii "Test or "
        72 20
   1640 00                 3510 	.db 0x00
   1641                    3511 ___str_97:
   1641 64 6F 6C 69 73 74  3512 	.ascii "dolist"
   1647 00                 3513 	.db 0x00
   1648                    3514 ___str_98:
   1648 6F 72              3515 	.ascii "or"
   164A 00                 3516 	.db 0x00
   164B                    3517 ___str_99:
   164B 65 78 69 74        3518 	.ascii "exit"
   164F 00                 3519 	.db 0x00
   1650                    3520 ___str_100:
   1650 20 2D 20 6F 6B     3521 	.ascii " - ok"
   1655 00                 3522 	.db 0x00
   1656                    3523 ___str_101:
   1656 20 2D 20 65 72 72  3524 	.ascii " - error"
        6F 72
   165E 00                 3525 	.db 0x00
                           3526 ;e4vm.c:528: static void e4vm_test_and (e4vm_type_x4thPtr *v)
                           3527 ;	---------------------------------
                           3528 ; Function e4vm_test_and
                           3529 ; ---------------------------------
   165F                    3530 _e4vm_test_and:
   165F CDr00r00      [17] 3531 	call	___sdcc_enter_ix
   1662 21 E2 FF      [10] 3532 	ld	hl, #-30
   1665 39            [11] 3533 	add	hl, sp
   1666 F9            [ 6] 3534 	ld	sp, hl
                           3535 ;e4vm.c:533: Console_WriteStr((CHAR*)"Test and ", 10);
   1667 21r66r17      [10] 3536 	ld	hl, #___str_102
   166A CDr00r00      [17] 3537 	call	_Console_WriteStr_C_COMPACT
                           3538 ;e4vm.c:534: e4vm_utils_init(v);
   166D DD 6E 04      [19] 3539 	ld	l, 4 (ix)
   1670 DD 66 05      [19] 3540 	ld	h, 5 (ix)
   1673 E5            [11] 3541 	push	hl
   1674 CDr00r00      [17] 3542 	call	_e4vm_utils_init
   1677 F1            [10] 3543 	pop	af
                           3544 ;e4vm.c:535: e4vm_core_add_core_words(v);
   1678 DD 6E 04      [19] 3545 	ld	l, 4 (ix)
   167B DD 66 05      [19] 3546 	ld	h, 5 (ix)
   167E E5            [11] 3547 	push	hl
   167F CDr00r00      [17] 3548 	call	_e4vm_core_add_core_words
   1682 F1            [10] 3549 	pop	af
                           3550 ;e4vm.c:536: e4vm_boolean_add_core_words(v);
   1683 DD 6E 04      [19] 3551 	ld	l, 4 (ix)
   1686 DD 66 05      [19] 3552 	ld	h, 5 (ix)
   1689 E5            [11] 3553 	push	hl
   168A CDr00r00      [17] 3554 	call	_e4vm_boolean_add_core_words
   168D F1            [10] 3555 	pop	af
                           3556 ;e4vm.c:537: e4vm_utils_here_to_wp(v);
   168E DD 6E 04      [19] 3557 	ld	l, 4 (ix)
   1691 DD 66 05      [19] 3558 	ld	h, 5 (ix)
   1694 E5            [11] 3559 	push	hl
   1695 CDr00r00      [17] 3560 	call	_e4vm_utils_here_to_wp
   1698 F1            [10] 3561 	pop	af
                           3562 ;e4vm.c:538: __MOVE((CHAR*)"dolist", _str__14, 7);
   1699 21 00 00      [10] 3563 	ld	hl, #0
   169C 39            [11] 3564 	add	hl, sp
   169D EB            [ 4] 3565 	ex	de, hl
   169E 4B            [ 4] 3566 	ld	c, e
   169F 42            [ 4] 3567 	ld	b, d
   16A0 D5            [11] 3568 	push	de
   16A1 21 07 00      [10] 3569 	ld	hl, #0x0007
   16A4 E5            [11] 3570 	push	hl
   16A5 21r70r17      [10] 3571 	ld	hl, #___str_103
   16A8 E5            [11] 3572 	push	hl
   16A9 C5            [11] 3573 	push	bc
   16AA CDr00r00      [17] 3574 	call	_memcpy
   16AD F1            [10] 3575 	pop	af
   16AE F1            [10] 3576 	pop	af
   16AF F1            [10] 3577 	pop	af
   16B0 DD 6E 04      [19] 3578 	ld	l, 4 (ix)
   16B3 DD 66 05      [19] 3579 	ld	h, 5 (ix)
   16B6 E5            [11] 3580 	push	hl
   16B7 CDr00r00      [17] 3581 	call	_e4vm_utils_add_op_from_string
   16BA F1            [10] 3582 	pop	af
   16BB F1            [10] 3583 	pop	af
                           3584 ;e4vm.c:540: __MOVE((CHAR*)"and", _str__13, 4);
   16BC 21 0A 00      [10] 3585 	ld	hl, #10
   16BF 39            [11] 3586 	add	hl, sp
   16C0 EB            [ 4] 3587 	ex	de, hl
   16C1 4B            [ 4] 3588 	ld	c, e
   16C2 42            [ 4] 3589 	ld	b, d
   16C3 D5            [11] 3590 	push	de
   16C4 21 04 00      [10] 3591 	ld	hl, #0x0004
   16C7 E5            [11] 3592 	push	hl
   16C8 21r77r17      [10] 3593 	ld	hl, #___str_104
   16CB E5            [11] 3594 	push	hl
   16CC C5            [11] 3595 	push	bc
   16CD CDr00r00      [17] 3596 	call	_memcpy
   16D0 F1            [10] 3597 	pop	af
   16D1 F1            [10] 3598 	pop	af
   16D2 F1            [10] 3599 	pop	af
   16D3 DD 6E 04      [19] 3600 	ld	l, 4 (ix)
   16D6 DD 66 05      [19] 3601 	ld	h, 5 (ix)
   16D9 E5            [11] 3602 	push	hl
   16DA CDr00r00      [17] 3603 	call	_e4vm_utils_add_op_from_string
   16DD F1            [10] 3604 	pop	af
   16DE F1            [10] 3605 	pop	af
                           3606 ;e4vm.c:542: __MOVE((CHAR*)"exit", _str__12, 5);
   16DF 21 14 00      [10] 3607 	ld	hl, #20
   16E2 39            [11] 3608 	add	hl, sp
   16E3 EB            [ 4] 3609 	ex	de, hl
   16E4 4B            [ 4] 3610 	ld	c, e
   16E5 42            [ 4] 3611 	ld	b, d
   16E6 D5            [11] 3612 	push	de
   16E7 21 05 00      [10] 3613 	ld	hl, #0x0005
   16EA E5            [11] 3614 	push	hl
   16EB 21r7Br17      [10] 3615 	ld	hl, #___str_105
   16EE E5            [11] 3616 	push	hl
   16EF C5            [11] 3617 	push	bc
   16F0 CDr00r00      [17] 3618 	call	_memcpy
   16F3 F1            [10] 3619 	pop	af
   16F4 F1            [10] 3620 	pop	af
   16F5 F1            [10] 3621 	pop	af
   16F6 DD 6E 04      [19] 3622 	ld	l, 4 (ix)
   16F9 DD 66 05      [19] 3623 	ld	h, 5 (ix)
   16FC E5            [11] 3624 	push	hl
   16FD CDr00r00      [17] 3625 	call	_e4vm_utils_add_op_from_string
   1700 F1            [10] 3626 	pop	af
                           3627 ;e4vm.c:544: e4vm_utils_stack_ds_push(v, 3);
   1701 21 03 00      [10] 3628 	ld	hl, #0x0003
   1704 E3            [19] 3629 	ex	(sp),hl
   1705 DD 6E 04      [19] 3630 	ld	l, 4 (ix)
   1708 DD 66 05      [19] 3631 	ld	h, 5 (ix)
   170B E5            [11] 3632 	push	hl
   170C CDr00r00      [17] 3633 	call	_e4vm_utils_stack_ds_push
   170F F1            [10] 3634 	pop	af
                           3635 ;e4vm.c:545: e4vm_utils_stack_ds_push(v, 6);
   1710 21 06 00      [10] 3636 	ld	hl, #0x0006
   1713 E3            [19] 3637 	ex	(sp),hl
   1714 DD 6E 04      [19] 3638 	ld	l, 4 (ix)
   1717 DD 66 05      [19] 3639 	ld	h, 5 (ix)
   171A E5            [11] 3640 	push	hl
   171B CDr00r00      [17] 3641 	call	_e4vm_utils_stack_ds_push
   171E F1            [10] 3642 	pop	af
   171F F1            [10] 3643 	pop	af
                           3644 ;e4vm.c:546: e4vm_core_do_list(v);
   1720 DD 6E 04      [19] 3645 	ld	l, 4 (ix)
   1723 DD 66 05      [19] 3646 	ld	h, 5 (ix)
   1726 E5            [11] 3647 	push	hl
   1727 CDr00r00      [17] 3648 	call	_e4vm_core_do_list
   172A F1            [10] 3649 	pop	af
                           3650 ;e4vm.c:547: e4vm_core_do_next(v);
   172B DD 6E 04      [19] 3651 	ld	l, 4 (ix)
   172E DD 66 05      [19] 3652 	ld	h, 5 (ix)
   1731 E5            [11] 3653 	push	hl
   1732 CDr00r00      [17] 3654 	call	_e4vm_core_do_next
   1735 F1            [10] 3655 	pop	af
                           3656 ;e4vm.c:548: if ((*v)->ds[0] == 2) {
   1736 DD 6E 04      [19] 3657 	ld	l, 4 (ix)
   1739 DD 66 05      [19] 3658 	ld	h, 5 (ix)
   173C 7E            [ 7] 3659 	ld	a, (hl)
   173D 23            [ 6] 3660 	inc	hl
   173E 66            [ 7] 3661 	ld	h, (hl)
   173F 6F            [ 4] 3662 	ld	l, a
   1740 11 44 00      [10] 3663 	ld	de, #0x0044
   1743 19            [11] 3664 	add	hl, de
   1744 4E            [ 7] 3665 	ld	c, (hl)
   1745 23            [ 6] 3666 	inc	hl
   1746 46            [ 7] 3667 	ld	b, (hl)
   1747 79            [ 4] 3668 	ld	a, c
   1748 D6 02         [ 7] 3669 	sub	a, #0x02
   174A B0            [ 4] 3670 	or	a, b
   174B 20 0B         [12] 3671 	jr	NZ,00102$
                           3672 ;e4vm.c:549: Console_WriteStrLn((CHAR*)" - ok", 6);
   174D 21r80r17      [10] 3673 	ld	hl, #___str_106
   1750 CDr00r00      [17] 3674 	call	_Console_WriteStr_C_COMPACT
   1753 CDr00r00      [17] 3675 	call	_Console_WriteLn_COMPACT
   1756 18 09         [12] 3676 	jr	00104$
   1758                    3677 00102$:
                           3678 ;e4vm.c:551: Console_WriteStrLn((CHAR*)" - error", 9);
   1758 21r86r17      [10] 3679 	ld	hl, #___str_107
   175B CDr00r00      [17] 3680 	call	_Console_WriteStr_C_COMPACT
   175E CDr00r00      [17] 3681 	call	_Console_WriteLn_COMPACT
   1761                    3682 00104$:
                           3683 ;e4vm.c:553: }
   1761 DD F9         [10] 3684 	ld	sp, ix
   1763 DD E1         [14] 3685 	pop	ix
   1765 C9            [10] 3686 	ret
   1766                    3687 ___str_102:
   1766 54 65 73 74 20 61  3688 	.ascii "Test and "
        6E 64 20
   176F 00                 3689 	.db 0x00
   1770                    3690 ___str_103:
   1770 64 6F 6C 69 73 74  3691 	.ascii "dolist"
   1776 00                 3692 	.db 0x00
   1777                    3693 ___str_104:
   1777 61 6E 64           3694 	.ascii "and"
   177A 00                 3695 	.db 0x00
   177B                    3696 ___str_105:
   177B 65 78 69 74        3697 	.ascii "exit"
   177F 00                 3698 	.db 0x00
   1780                    3699 ___str_106:
   1780 20 2D 20 6F 6B     3700 	.ascii " - ok"
   1785 00                 3701 	.db 0x00
   1786                    3702 ___str_107:
   1786 20 2D 20 65 72 72  3703 	.ascii " - error"
        6F 72
   178E 00                 3704 	.db 0x00
                           3705 ;e4vm.c:555: static void e4vm_test_xor (e4vm_type_x4thPtr *v)
                           3706 ;	---------------------------------
                           3707 ; Function e4vm_test_xor
                           3708 ; ---------------------------------
   178F                    3709 _e4vm_test_xor:
   178F CDr00r00      [17] 3710 	call	___sdcc_enter_ix
   1792 21 E2 FF      [10] 3711 	ld	hl, #-30
   1795 39            [11] 3712 	add	hl, sp
   1796 F9            [ 6] 3713 	ld	sp, hl
                           3714 ;e4vm.c:560: Console_WriteStr((CHAR*)"Test xor ", 10);
   1797 21r96r18      [10] 3715 	ld	hl, #___str_108
   179A CDr00r00      [17] 3716 	call	_Console_WriteStr_C_COMPACT
                           3717 ;e4vm.c:561: e4vm_utils_init(v);
   179D DD 6E 04      [19] 3718 	ld	l, 4 (ix)
   17A0 DD 66 05      [19] 3719 	ld	h, 5 (ix)
   17A3 E5            [11] 3720 	push	hl
   17A4 CDr00r00      [17] 3721 	call	_e4vm_utils_init
   17A7 F1            [10] 3722 	pop	af
                           3723 ;e4vm.c:562: e4vm_core_add_core_words(v);
   17A8 DD 6E 04      [19] 3724 	ld	l, 4 (ix)
   17AB DD 66 05      [19] 3725 	ld	h, 5 (ix)
   17AE E5            [11] 3726 	push	hl
   17AF CDr00r00      [17] 3727 	call	_e4vm_core_add_core_words
   17B2 F1            [10] 3728 	pop	af
                           3729 ;e4vm.c:563: e4vm_boolean_add_core_words(v);
   17B3 DD 6E 04      [19] 3730 	ld	l, 4 (ix)
   17B6 DD 66 05      [19] 3731 	ld	h, 5 (ix)
   17B9 E5            [11] 3732 	push	hl
   17BA CDr00r00      [17] 3733 	call	_e4vm_boolean_add_core_words
   17BD F1            [10] 3734 	pop	af
                           3735 ;e4vm.c:564: e4vm_utils_here_to_wp(v);
   17BE DD 6E 04      [19] 3736 	ld	l, 4 (ix)
   17C1 DD 66 05      [19] 3737 	ld	h, 5 (ix)
   17C4 E5            [11] 3738 	push	hl
   17C5 CDr00r00      [17] 3739 	call	_e4vm_utils_here_to_wp
   17C8 F1            [10] 3740 	pop	af
                           3741 ;e4vm.c:565: __MOVE((CHAR*)"dolist", _str__114, 7);
   17C9 21 00 00      [10] 3742 	ld	hl, #0
   17CC 39            [11] 3743 	add	hl, sp
   17CD EB            [ 4] 3744 	ex	de, hl
   17CE 4B            [ 4] 3745 	ld	c, e
   17CF 42            [ 4] 3746 	ld	b, d
   17D0 D5            [11] 3747 	push	de
   17D1 21 07 00      [10] 3748 	ld	hl, #0x0007
   17D4 E5            [11] 3749 	push	hl
   17D5 21rA0r18      [10] 3750 	ld	hl, #___str_109
   17D8 E5            [11] 3751 	push	hl
   17D9 C5            [11] 3752 	push	bc
   17DA CDr00r00      [17] 3753 	call	_memcpy
   17DD F1            [10] 3754 	pop	af
   17DE F1            [10] 3755 	pop	af
   17DF F1            [10] 3756 	pop	af
   17E0 DD 6E 04      [19] 3757 	ld	l, 4 (ix)
   17E3 DD 66 05      [19] 3758 	ld	h, 5 (ix)
   17E6 E5            [11] 3759 	push	hl
   17E7 CDr00r00      [17] 3760 	call	_e4vm_utils_add_op_from_string
   17EA F1            [10] 3761 	pop	af
   17EB F1            [10] 3762 	pop	af
                           3763 ;e4vm.c:567: __MOVE((CHAR*)"xor", _str__113, 4);
   17EC 21 0A 00      [10] 3764 	ld	hl, #10
   17EF 39            [11] 3765 	add	hl, sp
   17F0 EB            [ 4] 3766 	ex	de, hl
   17F1 4B            [ 4] 3767 	ld	c, e
   17F2 42            [ 4] 3768 	ld	b, d
   17F3 D5            [11] 3769 	push	de
   17F4 21 04 00      [10] 3770 	ld	hl, #0x0004
   17F7 E5            [11] 3771 	push	hl
   17F8 21rA7r18      [10] 3772 	ld	hl, #___str_110
   17FB E5            [11] 3773 	push	hl
   17FC C5            [11] 3774 	push	bc
   17FD CDr00r00      [17] 3775 	call	_memcpy
   1800 F1            [10] 3776 	pop	af
   1801 F1            [10] 3777 	pop	af
   1802 F1            [10] 3778 	pop	af
   1803 DD 6E 04      [19] 3779 	ld	l, 4 (ix)
   1806 DD 66 05      [19] 3780 	ld	h, 5 (ix)
   1809 E5            [11] 3781 	push	hl
   180A CDr00r00      [17] 3782 	call	_e4vm_utils_add_op_from_string
   180D F1            [10] 3783 	pop	af
   180E F1            [10] 3784 	pop	af
                           3785 ;e4vm.c:569: __MOVE((CHAR*)"exit", _str__112, 5);
   180F 21 14 00      [10] 3786 	ld	hl, #20
   1812 39            [11] 3787 	add	hl, sp
   1813 EB            [ 4] 3788 	ex	de, hl
   1814 4B            [ 4] 3789 	ld	c, e
   1815 42            [ 4] 3790 	ld	b, d
   1816 D5            [11] 3791 	push	de
   1817 21 05 00      [10] 3792 	ld	hl, #0x0005
   181A E5            [11] 3793 	push	hl
   181B 21rABr18      [10] 3794 	ld	hl, #___str_111
   181E E5            [11] 3795 	push	hl
   181F C5            [11] 3796 	push	bc
   1820 CDr00r00      [17] 3797 	call	_memcpy
   1823 F1            [10] 3798 	pop	af
   1824 F1            [10] 3799 	pop	af
   1825 F1            [10] 3800 	pop	af
   1826 DD 6E 04      [19] 3801 	ld	l, 4 (ix)
   1829 DD 66 05      [19] 3802 	ld	h, 5 (ix)
   182C E5            [11] 3803 	push	hl
   182D CDr00r00      [17] 3804 	call	_e4vm_utils_add_op_from_string
   1830 F1            [10] 3805 	pop	af
                           3806 ;e4vm.c:571: e4vm_utils_stack_ds_push(v, 6);
   1831 21 06 00      [10] 3807 	ld	hl, #0x0006
   1834 E3            [19] 3808 	ex	(sp),hl
   1835 DD 6E 04      [19] 3809 	ld	l, 4 (ix)
   1838 DD 66 05      [19] 3810 	ld	h, 5 (ix)
   183B E5            [11] 3811 	push	hl
   183C CDr00r00      [17] 3812 	call	_e4vm_utils_stack_ds_push
   183F F1            [10] 3813 	pop	af
                           3814 ;e4vm.c:572: e4vm_utils_stack_ds_push(v, 5);
   1840 21 05 00      [10] 3815 	ld	hl, #0x0005
   1843 E3            [19] 3816 	ex	(sp),hl
   1844 DD 6E 04      [19] 3817 	ld	l, 4 (ix)
   1847 DD 66 05      [19] 3818 	ld	h, 5 (ix)
   184A E5            [11] 3819 	push	hl
   184B CDr00r00      [17] 3820 	call	_e4vm_utils_stack_ds_push
   184E F1            [10] 3821 	pop	af
   184F F1            [10] 3822 	pop	af
                           3823 ;e4vm.c:573: e4vm_core_do_list(v);
   1850 DD 6E 04      [19] 3824 	ld	l, 4 (ix)
   1853 DD 66 05      [19] 3825 	ld	h, 5 (ix)
   1856 E5            [11] 3826 	push	hl
   1857 CDr00r00      [17] 3827 	call	_e4vm_core_do_list
   185A F1            [10] 3828 	pop	af
                           3829 ;e4vm.c:574: e4vm_core_do_next(v);
   185B DD 6E 04      [19] 3830 	ld	l, 4 (ix)
   185E DD 66 05      [19] 3831 	ld	h, 5 (ix)
   1861 E5            [11] 3832 	push	hl
   1862 CDr00r00      [17] 3833 	call	_e4vm_core_do_next
   1865 F1            [10] 3834 	pop	af
                           3835 ;e4vm.c:575: if ((*v)->ds[0] == 3) {
   1866 DD 6E 04      [19] 3836 	ld	l, 4 (ix)
   1869 DD 66 05      [19] 3837 	ld	h, 5 (ix)
   186C 7E            [ 7] 3838 	ld	a, (hl)
   186D 23            [ 6] 3839 	inc	hl
   186E 66            [ 7] 3840 	ld	h, (hl)
   186F 6F            [ 4] 3841 	ld	l, a
   1870 11 44 00      [10] 3842 	ld	de, #0x0044
   1873 19            [11] 3843 	add	hl, de
   1874 4E            [ 7] 3844 	ld	c, (hl)
   1875 23            [ 6] 3845 	inc	hl
   1876 46            [ 7] 3846 	ld	b, (hl)
   1877 79            [ 4] 3847 	ld	a, c
   1878 D6 03         [ 7] 3848 	sub	a, #0x03
   187A B0            [ 4] 3849 	or	a, b
   187B 20 0B         [12] 3850 	jr	NZ,00102$
                           3851 ;e4vm.c:576: Console_WriteStrLn((CHAR*)" - ok", 6);
   187D 21rB0r18      [10] 3852 	ld	hl, #___str_112
   1880 CDr00r00      [17] 3853 	call	_Console_WriteStr_C_COMPACT
   1883 CDr00r00      [17] 3854 	call	_Console_WriteLn_COMPACT
   1886 18 09         [12] 3855 	jr	00104$
   1888                    3856 00102$:
                           3857 ;e4vm.c:578: Console_WriteStrLn((CHAR*)" - error", 9);
   1888 21rB6r18      [10] 3858 	ld	hl, #___str_113
   188B CDr00r00      [17] 3859 	call	_Console_WriteStr_C_COMPACT
   188E CDr00r00      [17] 3860 	call	_Console_WriteLn_COMPACT
   1891                    3861 00104$:
                           3862 ;e4vm.c:580: }
   1891 DD F9         [10] 3863 	ld	sp, ix
   1893 DD E1         [14] 3864 	pop	ix
   1895 C9            [10] 3865 	ret
   1896                    3866 ___str_108:
   1896 54 65 73 74 20 78  3867 	.ascii "Test xor "
        6F 72 20
   189F 00                 3868 	.db 0x00
   18A0                    3869 ___str_109:
   18A0 64 6F 6C 69 73 74  3870 	.ascii "dolist"
   18A6 00                 3871 	.db 0x00
   18A7                    3872 ___str_110:
   18A7 78 6F 72           3873 	.ascii "xor"
   18AA 00                 3874 	.db 0x00
   18AB                    3875 ___str_111:
   18AB 65 78 69 74        3876 	.ascii "exit"
   18AF 00                 3877 	.db 0x00
   18B0                    3878 ___str_112:
   18B0 20 2D 20 6F 6B     3879 	.ascii " - ok"
   18B5 00                 3880 	.db 0x00
   18B6                    3881 ___str_113:
   18B6 20 2D 20 65 72 72  3882 	.ascii " - error"
        6F 72
   18BE 00                 3883 	.db 0x00
                           3884 ;e4vm.c:582: static void e4vm_test_here (e4vm_type_x4thPtr *v)
                           3885 ;	---------------------------------
                           3886 ; Function e4vm_test_here
                           3887 ; ---------------------------------
   18BF                    3888 _e4vm_test_here:
   18BF CDr00r00      [17] 3889 	call	___sdcc_enter_ix
   18C2 21 E2 FF      [10] 3890 	ld	hl, #-30
   18C5 39            [11] 3891 	add	hl, sp
   18C6 F9            [ 6] 3892 	ld	sp, hl
                           3893 ;e4vm.c:587: Console_WriteStr((CHAR*)"Test here ", 11);
   18C7 21rB6r19      [10] 3894 	ld	hl, #___str_114
   18CA CDr00r00      [17] 3895 	call	_Console_WriteStr_C_COMPACT
                           3896 ;e4vm.c:588: e4vm_utils_init(v);
   18CD DD 6E 04      [19] 3897 	ld	l, 4 (ix)
   18D0 DD 66 05      [19] 3898 	ld	h, 5 (ix)
   18D3 E5            [11] 3899 	push	hl
   18D4 CDr00r00      [17] 3900 	call	_e4vm_utils_init
   18D7 F1            [10] 3901 	pop	af
                           3902 ;e4vm.c:589: e4vm_core_add_core_words(v);
   18D8 DD 6E 04      [19] 3903 	ld	l, 4 (ix)
   18DB DD 66 05      [19] 3904 	ld	h, 5 (ix)
   18DE E5            [11] 3905 	push	hl
   18DF CDr00r00      [17] 3906 	call	_e4vm_core_add_core_words
   18E2 F1            [10] 3907 	pop	af
                           3908 ;e4vm.c:590: e4vm_core_ext_add_core_words(v);
   18E3 DD 6E 04      [19] 3909 	ld	l, 4 (ix)
   18E6 DD 66 05      [19] 3910 	ld	h, 5 (ix)
   18E9 E5            [11] 3911 	push	hl
   18EA CDr00r00      [17] 3912 	call	_e4vm_core_ext_add_core_words
   18ED F1            [10] 3913 	pop	af
                           3914 ;e4vm.c:591: e4vm_utils_here_to_wp(v);
   18EE DD 6E 04      [19] 3915 	ld	l, 4 (ix)
   18F1 DD 66 05      [19] 3916 	ld	h, 5 (ix)
   18F4 E5            [11] 3917 	push	hl
   18F5 CDr00r00      [17] 3918 	call	_e4vm_utils_here_to_wp
   18F8 F1            [10] 3919 	pop	af
                           3920 ;e4vm.c:592: __MOVE((CHAR*)"dolist", _str__55, 7);
   18F9 21 00 00      [10] 3921 	ld	hl, #0
   18FC 39            [11] 3922 	add	hl, sp
   18FD EB            [ 4] 3923 	ex	de, hl
   18FE 4B            [ 4] 3924 	ld	c, e
   18FF 42            [ 4] 3925 	ld	b, d
   1900 D5            [11] 3926 	push	de
   1901 21 07 00      [10] 3927 	ld	hl, #0x0007
   1904 E5            [11] 3928 	push	hl
   1905 21rC1r19      [10] 3929 	ld	hl, #___str_115
   1908 E5            [11] 3930 	push	hl
   1909 C5            [11] 3931 	push	bc
   190A CDr00r00      [17] 3932 	call	_memcpy
   190D F1            [10] 3933 	pop	af
   190E F1            [10] 3934 	pop	af
   190F F1            [10] 3935 	pop	af
   1910 DD 6E 04      [19] 3936 	ld	l, 4 (ix)
   1913 DD 66 05      [19] 3937 	ld	h, 5 (ix)
   1916 E5            [11] 3938 	push	hl
   1917 CDr00r00      [17] 3939 	call	_e4vm_utils_add_op_from_string
   191A F1            [10] 3940 	pop	af
   191B F1            [10] 3941 	pop	af
                           3942 ;e4vm.c:594: __MOVE((CHAR*)"here", _str__54, 5);
   191C 21 0A 00      [10] 3943 	ld	hl, #10
   191F 39            [11] 3944 	add	hl, sp
   1920 EB            [ 4] 3945 	ex	de, hl
   1921 4B            [ 4] 3946 	ld	c, e
   1922 42            [ 4] 3947 	ld	b, d
   1923 D5            [11] 3948 	push	de
   1924 21 05 00      [10] 3949 	ld	hl, #0x0005
   1927 E5            [11] 3950 	push	hl
   1928 21rC8r19      [10] 3951 	ld	hl, #___str_116
   192B E5            [11] 3952 	push	hl
   192C C5            [11] 3953 	push	bc
   192D CDr00r00      [17] 3954 	call	_memcpy
   1930 F1            [10] 3955 	pop	af
   1931 F1            [10] 3956 	pop	af
   1932 F1            [10] 3957 	pop	af
   1933 DD 6E 04      [19] 3958 	ld	l, 4 (ix)
   1936 DD 66 05      [19] 3959 	ld	h, 5 (ix)
   1939 E5            [11] 3960 	push	hl
   193A CDr00r00      [17] 3961 	call	_e4vm_utils_add_op_from_string
   193D F1            [10] 3962 	pop	af
   193E F1            [10] 3963 	pop	af
                           3964 ;e4vm.c:596: __MOVE((CHAR*)"exit", _str__53, 5);
   193F 21 14 00      [10] 3965 	ld	hl, #20
   1942 39            [11] 3966 	add	hl, sp
   1943 EB            [ 4] 3967 	ex	de, hl
   1944 4B            [ 4] 3968 	ld	c, e
   1945 42            [ 4] 3969 	ld	b, d
   1946 D5            [11] 3970 	push	de
   1947 21 05 00      [10] 3971 	ld	hl, #0x0005
   194A E5            [11] 3972 	push	hl
   194B 21rCDr19      [10] 3973 	ld	hl, #___str_117
   194E E5            [11] 3974 	push	hl
   194F C5            [11] 3975 	push	bc
   1950 CDr00r00      [17] 3976 	call	_memcpy
   1953 F1            [10] 3977 	pop	af
   1954 F1            [10] 3978 	pop	af
   1955 F1            [10] 3979 	pop	af
   1956 DD 6E 04      [19] 3980 	ld	l, 4 (ix)
   1959 DD 66 05      [19] 3981 	ld	h, 5 (ix)
   195C E5            [11] 3982 	push	hl
   195D CDr00r00      [17] 3983 	call	_e4vm_utils_add_op_from_string
   1960 F1            [10] 3984 	pop	af
   1961 F1            [10] 3985 	pop	af
                           3986 ;e4vm.c:598: (*v)->hereP = 555;
   1962 DD 4E 04      [19] 3987 	ld	c, 4 (ix)
   1965 DD 46 05      [19] 3988 	ld	b, 5 (ix)
   1968 69            [ 4] 3989 	ld	l, c
   1969 60            [ 4] 3990 	ld	h, b
   196A 5E            [ 7] 3991 	ld	e, (hl)
   196B 23            [ 6] 3992 	inc	hl
   196C 56            [ 7] 3993 	ld	d, (hl)
   196D 21 88 00      [10] 3994 	ld	hl, #0x0088
   1970 19            [11] 3995 	add	hl, de
   1971 36 2B         [10] 3996 	ld	(hl), #0x2b
   1973 23            [ 6] 3997 	inc	hl
   1974 36 02         [10] 3998 	ld	(hl), #0x02
                           3999 ;e4vm.c:599: e4vm_core_do_list(v);
   1976 C5            [11] 4000 	push	bc
   1977 C5            [11] 4001 	push	bc
   1978 CDr00r00      [17] 4002 	call	_e4vm_core_do_list
   197B F1            [10] 4003 	pop	af
   197C DD 6E 04      [19] 4004 	ld	l, 4 (ix)
   197F DD 66 05      [19] 4005 	ld	h, 5 (ix)
   1982 E5            [11] 4006 	push	hl
   1983 CDr00r00      [17] 4007 	call	_e4vm_core_do_next
   1986 F1            [10] 4008 	pop	af
                           4009 ;e4vm.c:601: if ((*v)->ds[0] == 555) {
   1987 E1            [10] 4010 	pop	hl
   1988 4E            [ 7] 4011 	ld	c, (hl)
   1989 23            [ 6] 4012 	inc	hl
   198A 66            [ 7] 4013 	ld	h, (hl)
   198B 69            [ 4] 4014 	ld	l, c
   198C 11 44 00      [10] 4015 	ld	de, #0x0044
   198F 19            [11] 4016 	add	hl, de
   1990 4E            [ 7] 4017 	ld	c, (hl)
   1991 23            [ 6] 4018 	inc	hl
   1992 46            [ 7] 4019 	ld	b, (hl)
   1993 79            [ 4] 4020 	ld	a, c
   1994 D6 2B         [ 7] 4021 	sub	a, #0x2b
   1996 20 10         [12] 4022 	jr	NZ,00102$
   1998 78            [ 4] 4023 	ld	a, b
   1999 D6 02         [ 7] 4024 	sub	a, #0x02
   199B 20 0B         [12] 4025 	jr	NZ,00102$
                           4026 ;e4vm.c:602: Console_WriteStrLn((CHAR*)" - ok", 6);
   199D 21rD2r19      [10] 4027 	ld	hl, #___str_118
   19A0 CDr00r00      [17] 4028 	call	_Console_WriteStr_C_COMPACT
   19A3 CDr00r00      [17] 4029 	call	_Console_WriteLn_COMPACT
   19A6 18 09         [12] 4030 	jr	00104$
   19A8                    4031 00102$:
                           4032 ;e4vm.c:604: Console_WriteStrLn((CHAR*)" - error", 9);
   19A8 21rD8r19      [10] 4033 	ld	hl, #___str_119
   19AB CDr00r00      [17] 4034 	call	_Console_WriteStr_C_COMPACT
   19AE CDr00r00      [17] 4035 	call	_Console_WriteLn_COMPACT
   19B1                    4036 00104$:
                           4037 ;e4vm.c:606: }
   19B1 DD F9         [10] 4038 	ld	sp, ix
   19B3 DD E1         [14] 4039 	pop	ix
   19B5 C9            [10] 4040 	ret
   19B6                    4041 ___str_114:
   19B6 54 65 73 74 20 68  4042 	.ascii "Test here "
        65 72 65 20
   19C0 00                 4043 	.db 0x00
   19C1                    4044 ___str_115:
   19C1 64 6F 6C 69 73 74  4045 	.ascii "dolist"
   19C7 00                 4046 	.db 0x00
   19C8                    4047 ___str_116:
   19C8 68 65 72 65        4048 	.ascii "here"
   19CC 00                 4049 	.db 0x00
   19CD                    4050 ___str_117:
   19CD 65 78 69 74        4051 	.ascii "exit"
   19D1 00                 4052 	.db 0x00
   19D2                    4053 ___str_118:
   19D2 20 2D 20 6F 6B     4054 	.ascii " - ok"
   19D7 00                 4055 	.db 0x00
   19D8                    4056 ___str_119:
   19D8 20 2D 20 65 72 72  4057 	.ascii " - error"
        6F 72
   19E0 00                 4058 	.db 0x00
                           4059 ;e4vm.c:608: static void e4vm_test_comma (e4vm_type_x4thPtr *v)
                           4060 ;	---------------------------------
                           4061 ; Function e4vm_test_comma
                           4062 ; ---------------------------------
   19E1                    4063 _e4vm_test_comma:
   19E1 CDr00r00      [17] 4064 	call	___sdcc_enter_ix
   19E4 21 E2 FF      [10] 4065 	ld	hl, #-30
   19E7 39            [11] 4066 	add	hl, sp
   19E8 F9            [ 6] 4067 	ld	sp, hl
                           4068 ;e4vm.c:613: Console_WriteStr((CHAR*)"Test comma , ", 14);
   19E9 21rE8r1A      [10] 4069 	ld	hl, #___str_120
   19EC CDr00r00      [17] 4070 	call	_Console_WriteStr_C_COMPACT
                           4071 ;e4vm.c:614: e4vm_utils_init(v);
   19EF DD 6E 04      [19] 4072 	ld	l, 4 (ix)
   19F2 DD 66 05      [19] 4073 	ld	h, 5 (ix)
   19F5 E5            [11] 4074 	push	hl
   19F6 CDr00r00      [17] 4075 	call	_e4vm_utils_init
   19F9 F1            [10] 4076 	pop	af
                           4077 ;e4vm.c:615: e4vm_core_add_core_words(v);
   19FA DD 6E 04      [19] 4078 	ld	l, 4 (ix)
   19FD DD 66 05      [19] 4079 	ld	h, 5 (ix)
   1A00 E5            [11] 4080 	push	hl
   1A01 CDr00r00      [17] 4081 	call	_e4vm_core_add_core_words
   1A04 F1            [10] 4082 	pop	af
                           4083 ;e4vm.c:616: e4vm_core_ext_add_core_words(v);
   1A05 DD 6E 04      [19] 4084 	ld	l, 4 (ix)
   1A08 DD 66 05      [19] 4085 	ld	h, 5 (ix)
   1A0B E5            [11] 4086 	push	hl
   1A0C CDr00r00      [17] 4087 	call	_e4vm_core_ext_add_core_words
   1A0F F1            [10] 4088 	pop	af
                           4089 ;e4vm.c:617: e4vm_utils_here_to_wp(v);
   1A10 DD 6E 04      [19] 4090 	ld	l, 4 (ix)
   1A13 DD 66 05      [19] 4091 	ld	h, 5 (ix)
   1A16 E5            [11] 4092 	push	hl
   1A17 CDr00r00      [17] 4093 	call	_e4vm_utils_here_to_wp
   1A1A F1            [10] 4094 	pop	af
                           4095 ;e4vm.c:618: __MOVE((CHAR*)"dolist", _str__28, 7);
   1A1B 21 00 00      [10] 4096 	ld	hl, #0
   1A1E 39            [11] 4097 	add	hl, sp
   1A1F EB            [ 4] 4098 	ex	de, hl
   1A20 4B            [ 4] 4099 	ld	c, e
   1A21 42            [ 4] 4100 	ld	b, d
   1A22 D5            [11] 4101 	push	de
   1A23 21 07 00      [10] 4102 	ld	hl, #0x0007
   1A26 E5            [11] 4103 	push	hl
   1A27 21rF6r1A      [10] 4104 	ld	hl, #___str_121
   1A2A E5            [11] 4105 	push	hl
   1A2B C5            [11] 4106 	push	bc
   1A2C CDr00r00      [17] 4107 	call	_memcpy
   1A2F F1            [10] 4108 	pop	af
   1A30 F1            [10] 4109 	pop	af
   1A31 F1            [10] 4110 	pop	af
   1A32 DD 6E 04      [19] 4111 	ld	l, 4 (ix)
   1A35 DD 66 05      [19] 4112 	ld	h, 5 (ix)
   1A38 E5            [11] 4113 	push	hl
   1A39 CDr00r00      [17] 4114 	call	_e4vm_utils_add_op_from_string
   1A3C F1            [10] 4115 	pop	af
   1A3D F1            [10] 4116 	pop	af
                           4117 ;e4vm.c:620: __MOVE((CHAR*)",", _str__27, 2);
   1A3E 21 0A 00      [10] 4118 	ld	hl, #10
   1A41 39            [11] 4119 	add	hl, sp
   1A42 EB            [ 4] 4120 	ex	de, hl
   1A43 4B            [ 4] 4121 	ld	c, e
   1A44 42            [ 4] 4122 	ld	b, d
   1A45 D5            [11] 4123 	push	de
   1A46 21 02 00      [10] 4124 	ld	hl, #0x0002
   1A49 E5            [11] 4125 	push	hl
   1A4A 21rFDr1A      [10] 4126 	ld	hl, #___str_122
   1A4D E5            [11] 4127 	push	hl
   1A4E C5            [11] 4128 	push	bc
   1A4F CDr00r00      [17] 4129 	call	_memcpy
   1A52 F1            [10] 4130 	pop	af
   1A53 F1            [10] 4131 	pop	af
   1A54 F1            [10] 4132 	pop	af
   1A55 DD 6E 04      [19] 4133 	ld	l, 4 (ix)
   1A58 DD 66 05      [19] 4134 	ld	h, 5 (ix)
   1A5B E5            [11] 4135 	push	hl
   1A5C CDr00r00      [17] 4136 	call	_e4vm_utils_add_op_from_string
   1A5F F1            [10] 4137 	pop	af
   1A60 F1            [10] 4138 	pop	af
                           4139 ;e4vm.c:622: __MOVE((CHAR*)"exit", _str__26, 5);
   1A61 21 14 00      [10] 4140 	ld	hl, #20
   1A64 39            [11] 4141 	add	hl, sp
   1A65 EB            [ 4] 4142 	ex	de, hl
   1A66 4B            [ 4] 4143 	ld	c, e
   1A67 42            [ 4] 4144 	ld	b, d
   1A68 D5            [11] 4145 	push	de
   1A69 21 05 00      [10] 4146 	ld	hl, #0x0005
   1A6C E5            [11] 4147 	push	hl
   1A6D 21rFFr1A      [10] 4148 	ld	hl, #___str_123
   1A70 E5            [11] 4149 	push	hl
   1A71 C5            [11] 4150 	push	bc
   1A72 CDr00r00      [17] 4151 	call	_memcpy
   1A75 F1            [10] 4152 	pop	af
   1A76 F1            [10] 4153 	pop	af
   1A77 F1            [10] 4154 	pop	af
   1A78 DD 6E 04      [19] 4155 	ld	l, 4 (ix)
   1A7B DD 66 05      [19] 4156 	ld	h, 5 (ix)
   1A7E E5            [11] 4157 	push	hl
   1A7F CDr00r00      [17] 4158 	call	_e4vm_utils_add_op_from_string
   1A82 F1            [10] 4159 	pop	af
   1A83 F1            [10] 4160 	pop	af
                           4161 ;e4vm.c:624: (*v)->hereP = 18;
   1A84 DD 4E 04      [19] 4162 	ld	c, 4 (ix)
   1A87 DD 46 05      [19] 4163 	ld	b, 5 (ix)
   1A8A 69            [ 4] 4164 	ld	l, c
   1A8B 60            [ 4] 4165 	ld	h, b
   1A8C 5E            [ 7] 4166 	ld	e, (hl)
   1A8D 23            [ 6] 4167 	inc	hl
   1A8E 56            [ 7] 4168 	ld	d, (hl)
   1A8F 21 88 00      [10] 4169 	ld	hl, #0x0088
   1A92 19            [11] 4170 	add	hl, de
   1A93 36 12         [10] 4171 	ld	(hl), #0x12
   1A95 23            [ 6] 4172 	inc	hl
   1A96 36 00         [10] 4173 	ld	(hl), #0x00
                           4174 ;e4vm.c:625: e4vm_utils_stack_ds_push(v, 777);
   1A98 C5            [11] 4175 	push	bc
   1A99 21 09 03      [10] 4176 	ld	hl, #0x0309
   1A9C E5            [11] 4177 	push	hl
   1A9D C5            [11] 4178 	push	bc
   1A9E CDr00r00      [17] 4179 	call	_e4vm_utils_stack_ds_push
   1AA1 F1            [10] 4180 	pop	af
   1AA2 F1            [10] 4181 	pop	af
   1AA3 DD 6E 04      [19] 4182 	ld	l, 4 (ix)
   1AA6 DD 66 05      [19] 4183 	ld	h, 5 (ix)
   1AA9 E5            [11] 4184 	push	hl
   1AAA CDr00r00      [17] 4185 	call	_e4vm_core_do_list
   1AAD F1            [10] 4186 	pop	af
   1AAE DD 6E 04      [19] 4187 	ld	l, 4 (ix)
   1AB1 DD 66 05      [19] 4188 	ld	h, 5 (ix)
   1AB4 E5            [11] 4189 	push	hl
   1AB5 CDr00r00      [17] 4190 	call	_e4vm_core_do_next
   1AB8 F1            [10] 4191 	pop	af
                           4192 ;e4vm.c:628: if ((*v)->mem[18] == 777) {
   1AB9 E1            [10] 4193 	pop	hl
   1ABA 4E            [ 7] 4194 	ld	c, (hl)
   1ABB 23            [ 6] 4195 	inc	hl
   1ABC 66            [ 7] 4196 	ld	h, (hl)
   1ABD 69            [ 4] 4197 	ld	l, c
   1ABE 11 AE 00      [10] 4198 	ld	de, #0x00ae
   1AC1 19            [11] 4199 	add	hl, de
   1AC2 4E            [ 7] 4200 	ld	c, (hl)
   1AC3 23            [ 6] 4201 	inc	hl
   1AC4 46            [ 7] 4202 	ld	b, (hl)
   1AC5 79            [ 4] 4203 	ld	a, c
   1AC6 D6 09         [ 7] 4204 	sub	a, #0x09
   1AC8 20 10         [12] 4205 	jr	NZ,00102$
   1ACA 78            [ 4] 4206 	ld	a, b
   1ACB D6 03         [ 7] 4207 	sub	a, #0x03
   1ACD 20 0B         [12] 4208 	jr	NZ,00102$
                           4209 ;e4vm.c:629: Console_WriteStrLn((CHAR*)" - ok", 6);
   1ACF 21r04r1B      [10] 4210 	ld	hl, #___str_124
   1AD2 CDr00r00      [17] 4211 	call	_Console_WriteStr_C_COMPACT
   1AD5 CDr00r00      [17] 4212 	call	_Console_WriteLn_COMPACT
   1AD8 18 09         [12] 4213 	jr	00104$
   1ADA                    4214 00102$:
                           4215 ;e4vm.c:631: Console_WriteStrLn((CHAR*)" - error", 9);
   1ADA 21r0Ar1B      [10] 4216 	ld	hl, #___str_125
   1ADD CDr00r00      [17] 4217 	call	_Console_WriteStr_C_COMPACT
   1AE0 CDr00r00      [17] 4218 	call	_Console_WriteLn_COMPACT
   1AE3                    4219 00104$:
                           4220 ;e4vm.c:633: }
   1AE3 DD F9         [10] 4221 	ld	sp, ix
   1AE5 DD E1         [14] 4222 	pop	ix
   1AE7 C9            [10] 4223 	ret
   1AE8                    4224 ___str_120:
   1AE8 54 65 73 74 20 63  4225 	.ascii "Test comma , "
        6F 6D 6D 61 20 2C
        20
   1AF5 00                 4226 	.db 0x00
   1AF6                    4227 ___str_121:
   1AF6 64 6F 6C 69 73 74  4228 	.ascii "dolist"
   1AFC 00                 4229 	.db 0x00
   1AFD                    4230 ___str_122:
   1AFD 2C                 4231 	.ascii ","
   1AFE 00                 4232 	.db 0x00
   1AFF                    4233 ___str_123:
   1AFF 65 78 69 74        4234 	.ascii "exit"
   1B03 00                 4235 	.db 0x00
   1B04                    4236 ___str_124:
   1B04 20 2D 20 6F 6B     4237 	.ascii " - ok"
   1B09 00                 4238 	.db 0x00
   1B0A                    4239 ___str_125:
   1B0A 20 2D 20 65 72 72  4240 	.ascii " - error"
        6F 72
   1B12 00                 4241 	.db 0x00
                           4242 ;e4vm.c:635: static void e4vm_test_branch (e4vm_type_x4thPtr *v)
                           4243 ;	---------------------------------
                           4244 ; Function e4vm_test_branch
                           4245 ; ---------------------------------
   1B13                    4246 _e4vm_test_branch:
   1B13 CDr00r00      [17] 4247 	call	___sdcc_enter_ix
   1B16 21 9E FF      [10] 4248 	ld	hl, #-98
   1B19 39            [11] 4249 	add	hl, sp
   1B1A F9            [ 6] 4250 	ld	sp, hl
                           4251 ;e4vm.c:647: Console_WriteStr((CHAR*)"Test branch ", 13);
   1B1B 21rA6r1D      [10] 4252 	ld	hl, #___str_126
   1B1E CDr00r00      [17] 4253 	call	_Console_WriteStr_C_COMPACT
                           4254 ;e4vm.c:648: e4vm_utils_init(v);
   1B21 DD 6E 04      [19] 4255 	ld	l, 4 (ix)
   1B24 DD 66 05      [19] 4256 	ld	h, 5 (ix)
   1B27 E5            [11] 4257 	push	hl
   1B28 CDr00r00      [17] 4258 	call	_e4vm_utils_init
   1B2B F1            [10] 4259 	pop	af
                           4260 ;e4vm.c:649: e4vm_core_add_core_words(v);
   1B2C DD 6E 04      [19] 4261 	ld	l, 4 (ix)
   1B2F DD 66 05      [19] 4262 	ld	h, 5 (ix)
   1B32 E5            [11] 4263 	push	hl
   1B33 CDr00r00      [17] 4264 	call	_e4vm_core_add_core_words
   1B36 F1            [10] 4265 	pop	af
                           4266 ;e4vm.c:650: e4vm_core_ext_add_core_words(v);
   1B37 DD 6E 04      [19] 4267 	ld	l, 4 (ix)
   1B3A DD 66 05      [19] 4268 	ld	h, 5 (ix)
   1B3D E5            [11] 4269 	push	hl
   1B3E CDr00r00      [17] 4270 	call	_e4vm_core_ext_add_core_words
   1B41 F1            [10] 4271 	pop	af
                           4272 ;e4vm.c:651: e4vm_utils_here_to_wp(v);
   1B42 DD 6E 04      [19] 4273 	ld	l, 4 (ix)
   1B45 DD 66 05      [19] 4274 	ld	h, 5 (ix)
   1B48 E5            [11] 4275 	push	hl
   1B49 CDr00r00      [17] 4276 	call	_e4vm_utils_here_to_wp
   1B4C F1            [10] 4277 	pop	af
                           4278 ;e4vm.c:652: __MOVE((CHAR*)"dolist", _str__24, 7);
   1B4D 21 00 00      [10] 4279 	ld	hl, #0
   1B50 39            [11] 4280 	add	hl, sp
   1B51 EB            [ 4] 4281 	ex	de, hl
   1B52 4B            [ 4] 4282 	ld	c, e
   1B53 42            [ 4] 4283 	ld	b, d
   1B54 D5            [11] 4284 	push	de
   1B55 21 07 00      [10] 4285 	ld	hl, #0x0007
   1B58 E5            [11] 4286 	push	hl
   1B59 21rB3r1D      [10] 4287 	ld	hl, #___str_127
   1B5C E5            [11] 4288 	push	hl
   1B5D C5            [11] 4289 	push	bc
   1B5E CDr00r00      [17] 4290 	call	_memcpy
   1B61 F1            [10] 4291 	pop	af
   1B62 F1            [10] 4292 	pop	af
   1B63 F1            [10] 4293 	pop	af
   1B64 DD 6E 04      [19] 4294 	ld	l, 4 (ix)
   1B67 DD 66 05      [19] 4295 	ld	h, 5 (ix)
   1B6A E5            [11] 4296 	push	hl
   1B6B CDr00r00      [17] 4297 	call	_e4vm_utils_add_op_from_string
   1B6E F1            [10] 4298 	pop	af
   1B6F F1            [10] 4299 	pop	af
                           4300 ;e4vm.c:654: __MOVE((CHAR*)"nop", _str__23, 4);
   1B70 21 0A 00      [10] 4301 	ld	hl, #10
   1B73 39            [11] 4302 	add	hl, sp
   1B74 EB            [ 4] 4303 	ex	de, hl
   1B75 4B            [ 4] 4304 	ld	c, e
   1B76 42            [ 4] 4305 	ld	b, d
   1B77 D5            [11] 4306 	push	de
   1B78 21 04 00      [10] 4307 	ld	hl, #0x0004
   1B7B E5            [11] 4308 	push	hl
   1B7C 21rBAr1D      [10] 4309 	ld	hl, #___str_128
   1B7F E5            [11] 4310 	push	hl
   1B80 C5            [11] 4311 	push	bc
   1B81 CDr00r00      [17] 4312 	call	_memcpy
   1B84 F1            [10] 4313 	pop	af
   1B85 F1            [10] 4314 	pop	af
   1B86 F1            [10] 4315 	pop	af
   1B87 DD 6E 04      [19] 4316 	ld	l, 4 (ix)
   1B8A DD 66 05      [19] 4317 	ld	h, 5 (ix)
   1B8D E5            [11] 4318 	push	hl
   1B8E CDr00r00      [17] 4319 	call	_e4vm_utils_add_op_from_string
   1B91 F1            [10] 4320 	pop	af
   1B92 F1            [10] 4321 	pop	af
                           4322 ;e4vm.c:656: __MOVE((CHAR*)"nop", _str__22, 4);
   1B93 21 14 00      [10] 4323 	ld	hl, #20
   1B96 39            [11] 4324 	add	hl, sp
   1B97 EB            [ 4] 4325 	ex	de, hl
   1B98 4B            [ 4] 4326 	ld	c, e
   1B99 42            [ 4] 4327 	ld	b, d
   1B9A D5            [11] 4328 	push	de
   1B9B 21 04 00      [10] 4329 	ld	hl, #0x0004
   1B9E E5            [11] 4330 	push	hl
   1B9F 21rBAr1D      [10] 4331 	ld	hl, #___str_128
   1BA2 E5            [11] 4332 	push	hl
   1BA3 C5            [11] 4333 	push	bc
   1BA4 CDr00r00      [17] 4334 	call	_memcpy
   1BA7 F1            [10] 4335 	pop	af
   1BA8 F1            [10] 4336 	pop	af
   1BA9 F1            [10] 4337 	pop	af
   1BAA DD 6E 04      [19] 4338 	ld	l, 4 (ix)
   1BAD DD 66 05      [19] 4339 	ld	h, 5 (ix)
   1BB0 E5            [11] 4340 	push	hl
   1BB1 CDr00r00      [17] 4341 	call	_e4vm_utils_add_op_from_string
   1BB4 F1            [10] 4342 	pop	af
   1BB5 F1            [10] 4343 	pop	af
                           4344 ;e4vm.c:658: __MOVE((CHAR*)"nop", _str__21, 4);
   1BB6 21 1E 00      [10] 4345 	ld	hl, #30
   1BB9 39            [11] 4346 	add	hl, sp
   1BBA EB            [ 4] 4347 	ex	de, hl
   1BBB 4B            [ 4] 4348 	ld	c, e
   1BBC 42            [ 4] 4349 	ld	b, d
   1BBD D5            [11] 4350 	push	de
   1BBE 21 04 00      [10] 4351 	ld	hl, #0x0004
   1BC1 E5            [11] 4352 	push	hl
   1BC2 21rBAr1D      [10] 4353 	ld	hl, #___str_128
   1BC5 E5            [11] 4354 	push	hl
   1BC6 C5            [11] 4355 	push	bc
   1BC7 CDr00r00      [17] 4356 	call	_memcpy
   1BCA F1            [10] 4357 	pop	af
   1BCB F1            [10] 4358 	pop	af
   1BCC F1            [10] 4359 	pop	af
   1BCD DD 6E 04      [19] 4360 	ld	l, 4 (ix)
   1BD0 DD 66 05      [19] 4361 	ld	h, 5 (ix)
   1BD3 E5            [11] 4362 	push	hl
   1BD4 CDr00r00      [17] 4363 	call	_e4vm_utils_add_op_from_string
   1BD7 F1            [10] 4364 	pop	af
   1BD8 F1            [10] 4365 	pop	af
                           4366 ;e4vm.c:660: __MOVE((CHAR*)"branch", _str__20, 7);
   1BD9 21 28 00      [10] 4367 	ld	hl, #40
   1BDC 39            [11] 4368 	add	hl, sp
   1BDD EB            [ 4] 4369 	ex	de, hl
   1BDE 4B            [ 4] 4370 	ld	c, e
   1BDF 42            [ 4] 4371 	ld	b, d
   1BE0 D5            [11] 4372 	push	de
   1BE1 21 07 00      [10] 4373 	ld	hl, #0x0007
   1BE4 E5            [11] 4374 	push	hl
   1BE5 21rBEr1D      [10] 4375 	ld	hl, #___str_129
   1BE8 E5            [11] 4376 	push	hl
   1BE9 C5            [11] 4377 	push	bc
   1BEA CDr00r00      [17] 4378 	call	_memcpy
   1BED F1            [10] 4379 	pop	af
   1BEE F1            [10] 4380 	pop	af
   1BEF F1            [10] 4381 	pop	af
   1BF0 DD 6E 04      [19] 4382 	ld	l, 4 (ix)
   1BF3 DD 66 05      [19] 4383 	ld	h, 5 (ix)
   1BF6 E5            [11] 4384 	push	hl
   1BF7 CDr00r00      [17] 4385 	call	_e4vm_utils_add_op_from_string
   1BFA F1            [10] 4386 	pop	af
                           4387 ;e4vm.c:662: e4vm_utils_add_op(v, 77);
   1BFB 21 4D 00      [10] 4388 	ld	hl, #0x004d
   1BFE E3            [19] 4389 	ex	(sp),hl
   1BFF DD 6E 04      [19] 4390 	ld	l, 4 (ix)
   1C02 DD 66 05      [19] 4391 	ld	h, 5 (ix)
   1C05 E5            [11] 4392 	push	hl
   1C06 CDr00r00      [17] 4393 	call	_e4vm_utils_add_op
   1C09 F1            [10] 4394 	pop	af
   1C0A F1            [10] 4395 	pop	af
                           4396 ;e4vm.c:663: __MOVE((CHAR*)"dolit", _str__19, 6);
   1C0B 21 32 00      [10] 4397 	ld	hl, #50
   1C0E 39            [11] 4398 	add	hl, sp
   1C0F EB            [ 4] 4399 	ex	de, hl
   1C10 4B            [ 4] 4400 	ld	c, e
   1C11 42            [ 4] 4401 	ld	b, d
   1C12 D5            [11] 4402 	push	de
   1C13 21 06 00      [10] 4403 	ld	hl, #0x0006
   1C16 E5            [11] 4404 	push	hl
   1C17 21rC5r1D      [10] 4405 	ld	hl, #___str_130
   1C1A E5            [11] 4406 	push	hl
   1C1B C5            [11] 4407 	push	bc
   1C1C CDr00r00      [17] 4408 	call	_memcpy
   1C1F F1            [10] 4409 	pop	af
   1C20 F1            [10] 4410 	pop	af
   1C21 F1            [10] 4411 	pop	af
   1C22 DD 6E 04      [19] 4412 	ld	l, 4 (ix)
   1C25 DD 66 05      [19] 4413 	ld	h, 5 (ix)
   1C28 E5            [11] 4414 	push	hl
   1C29 CDr00r00      [17] 4415 	call	_e4vm_utils_add_op_from_string
   1C2C F1            [10] 4416 	pop	af
                           4417 ;e4vm.c:665: e4vm_utils_add_op(v, 1);
   1C2D 21 01 00      [10] 4418 	ld	hl, #0x0001
   1C30 E3            [19] 4419 	ex	(sp),hl
   1C31 DD 6E 04      [19] 4420 	ld	l, 4 (ix)
   1C34 DD 66 05      [19] 4421 	ld	h, 5 (ix)
   1C37 E5            [11] 4422 	push	hl
   1C38 CDr00r00      [17] 4423 	call	_e4vm_utils_add_op
   1C3B F1            [10] 4424 	pop	af
   1C3C F1            [10] 4425 	pop	af
                           4426 ;e4vm.c:666: __MOVE((CHAR*)"exit", _str__18, 5);
   1C3D 21 3C 00      [10] 4427 	ld	hl, #60
   1C40 39            [11] 4428 	add	hl, sp
   1C41 EB            [ 4] 4429 	ex	de, hl
   1C42 4B            [ 4] 4430 	ld	c, e
   1C43 42            [ 4] 4431 	ld	b, d
   1C44 D5            [11] 4432 	push	de
   1C45 21 05 00      [10] 4433 	ld	hl, #0x0005
   1C48 E5            [11] 4434 	push	hl
   1C49 21rCBr1D      [10] 4435 	ld	hl, #___str_131
   1C4C E5            [11] 4436 	push	hl
   1C4D C5            [11] 4437 	push	bc
   1C4E CDr00r00      [17] 4438 	call	_memcpy
   1C51 F1            [10] 4439 	pop	af
   1C52 F1            [10] 4440 	pop	af
   1C53 F1            [10] 4441 	pop	af
   1C54 DD 6E 04      [19] 4442 	ld	l, 4 (ix)
   1C57 DD 66 05      [19] 4443 	ld	h, 5 (ix)
   1C5A E5            [11] 4444 	push	hl
   1C5B CDr00r00      [17] 4445 	call	_e4vm_utils_add_op_from_string
   1C5E F1            [10] 4446 	pop	af
   1C5F F1            [10] 4447 	pop	af
                           4448 ;e4vm.c:668: jmp_addr = (*v)->hereP;
   1C60 DD 4E 04      [19] 4449 	ld	c, 4 (ix)
   1C63 DD 46 05      [19] 4450 	ld	b, 5 (ix)
   1C66 DD 71 F8      [19] 4451 	ld	-8 (ix), c
   1C69 DD 70 F9      [19] 4452 	ld	-7 (ix), b
   1C6C 69            [ 4] 4453 	ld	l, c
   1C6D 60            [ 4] 4454 	ld	h, b
   1C6E 5E            [ 7] 4455 	ld	e, (hl)
   1C6F 23            [ 6] 4456 	inc	hl
   1C70 66            [ 7] 4457 	ld	h, (hl)
   1C71 6B            [ 4] 4458 	ld	l, e
   1C72 11 88 00      [10] 4459 	ld	de, #0x0088
   1C75 19            [11] 4460 	add	hl, de
   1C76 7E            [ 7] 4461 	ld	a, (hl)
   1C77 DD 77 FA      [19] 4462 	ld	-6 (ix), a
   1C7A 23            [ 6] 4463 	inc	hl
   1C7B 7E            [ 7] 4464 	ld	a, (hl)
   1C7C DD 77 FB      [19] 4465 	ld	-5 (ix), a
                           4466 ;e4vm.c:669: __MOVE((CHAR*)"dolit", _str__17, 6);
   1C7F 21 46 00      [10] 4467 	ld	hl, #70
   1C82 39            [11] 4468 	add	hl, sp
   1C83 EB            [ 4] 4469 	ex	de, hl
   1C84 DD 73 FE      [19] 4470 	ld	-2 (ix), e
   1C87 DD 72 FF      [19] 4471 	ld	-1 (ix), d
   1C8A C5            [11] 4472 	push	bc
   1C8B D5            [11] 4473 	push	de
   1C8C 21 06 00      [10] 4474 	ld	hl, #0x0006
   1C8F E5            [11] 4475 	push	hl
   1C90 21rC5r1D      [10] 4476 	ld	hl, #___str_130
   1C93 E5            [11] 4477 	push	hl
   1C94 DD 6E FE      [19] 4478 	ld	l, -2 (ix)
   1C97 DD 66 FF      [19] 4479 	ld	h, -1 (ix)
   1C9A E5            [11] 4480 	push	hl
   1C9B CDr00r00      [17] 4481 	call	_memcpy
   1C9E F1            [10] 4482 	pop	af
   1C9F F1            [10] 4483 	pop	af
   1CA0 F1            [10] 4484 	pop	af
   1CA1 D1            [10] 4485 	pop	de
   1CA2 C1            [10] 4486 	pop	bc
                           4487 ;e4vm.c:670: e4vm_utils_add_op_from_string(v, (void*)_str__17);
   1CA3 C5            [11] 4488 	push	bc
   1CA4 D5            [11] 4489 	push	de
   1CA5 C5            [11] 4490 	push	bc
   1CA6 CDr00r00      [17] 4491 	call	_e4vm_utils_add_op_from_string
   1CA9 F1            [10] 4492 	pop	af
   1CAA 21 02 00      [10] 4493 	ld	hl, #0x0002
   1CAD E3            [19] 4494 	ex	(sp),hl
   1CAE DD 6E 04      [19] 4495 	ld	l, 4 (ix)
   1CB1 DD 66 05      [19] 4496 	ld	h, 5 (ix)
   1CB4 E5            [11] 4497 	push	hl
   1CB5 CDr00r00      [17] 4498 	call	_e4vm_utils_add_op
   1CB8 F1            [10] 4499 	pop	af
   1CB9 F1            [10] 4500 	pop	af
   1CBA C1            [10] 4501 	pop	bc
                           4502 ;e4vm.c:672: __MOVE((CHAR*)"exit", _str__16, 5);
   1CBB 21 50 00      [10] 4503 	ld	hl, #80
   1CBE 39            [11] 4504 	add	hl, sp
   1CBF EB            [ 4] 4505 	ex	de, hl
   1CC0 DD 73 FE      [19] 4506 	ld	-2 (ix), e
   1CC3 DD 72 FF      [19] 4507 	ld	-1 (ix), d
   1CC6 C5            [11] 4508 	push	bc
   1CC7 D5            [11] 4509 	push	de
   1CC8 21 05 00      [10] 4510 	ld	hl, #0x0005
   1CCB E5            [11] 4511 	push	hl
   1CCC 21rCBr1D      [10] 4512 	ld	hl, #___str_131
   1CCF E5            [11] 4513 	push	hl
   1CD0 DD 6E FE      [19] 4514 	ld	l, -2 (ix)
   1CD3 DD 66 FF      [19] 4515 	ld	h, -1 (ix)
   1CD6 E5            [11] 4516 	push	hl
   1CD7 CDr00r00      [17] 4517 	call	_memcpy
   1CDA F1            [10] 4518 	pop	af
   1CDB F1            [10] 4519 	pop	af
   1CDC F1            [10] 4520 	pop	af
   1CDD DD 6E 04      [19] 4521 	ld	l, 4 (ix)
   1CE0 DD 66 05      [19] 4522 	ld	h, 5 (ix)
   1CE3 E5            [11] 4523 	push	hl
   1CE4 CDr00r00      [17] 4524 	call	_e4vm_utils_add_op_from_string
   1CE7 F1            [10] 4525 	pop	af
   1CE8 F1            [10] 4526 	pop	af
   1CE9 C1            [10] 4527 	pop	bc
                           4528 ;e4vm.c:675: while (i <= 31) {
   1CEA DD 71 FC      [19] 4529 	ld	-4 (ix), c
   1CED DD 70 FD      [19] 4530 	ld	-3 (ix), b
   1CF0 11 00 00      [10] 4531 	ld	de, #0x0000
   1CF3                    4532 00103$:
   1CF3 3E 1F         [ 7] 4533 	ld	a, #0x1f
   1CF5 BB            [ 4] 4534 	cp	a, e
   1CF6 3E 00         [ 7] 4535 	ld	a, #0x00
   1CF8 9A            [ 4] 4536 	sbc	a, d
   1CF9 E2rFEr1C      [10] 4537 	jp	PO, 00132$
   1CFC EE 80         [ 7] 4538 	xor	a, #0x80
   1CFE                    4539 00132$:
   1CFE FAr57r1D      [10] 4540 	jp	M, 00105$
                           4541 ;e4vm.c:676: if ((*v)->mem[i] == 77) {
   1D01 DD 6E F8      [19] 4542 	ld	l, -8 (ix)
   1D04 DD 66 F9      [19] 4543 	ld	h, -7 (ix)
   1D07 7E            [ 7] 4544 	ld	a, (hl)
   1D08 23            [ 6] 4545 	inc	hl
   1D09 66            [ 7] 4546 	ld	h, (hl)
   1D0A 6F            [ 4] 4547 	ld	l, a
   1D0B D5            [11] 4548 	push	de
   1D0C 11 8A 00      [10] 4549 	ld	de, #0x008a
   1D0F 19            [11] 4550 	add	hl, de
   1D10 D1            [10] 4551 	pop	de
   1D11 DD 73 FE      [19] 4552 	ld	-2 (ix), e
   1D14 DD 72 FF      [19] 4553 	ld	-1 (ix), d
   1D17 DD CB FE 26   [23] 4554 	sla	-2 (ix)
   1D1B DD CB FF 16   [23] 4555 	rl	-1 (ix)
   1D1F 7D            [ 4] 4556 	ld	a, l
   1D20 DD 86 FE      [19] 4557 	add	a, -2 (ix)
   1D23 6F            [ 4] 4558 	ld	l, a
   1D24 7C            [ 4] 4559 	ld	a, h
   1D25 DD 8E FF      [19] 4560 	adc	a, -1 (ix)
   1D28 67            [ 4] 4561 	ld	h, a
   1D29 7E            [ 7] 4562 	ld	a, (hl)
   1D2A 23            [ 6] 4563 	inc	hl
   1D2B 66            [ 7] 4564 	ld	h, (hl)
   1D2C D6 4D         [ 7] 4565 	sub	a, #0x4d
   1D2E B4            [ 4] 4566 	or	a, h
   1D2F 20 23         [12] 4567 	jr	NZ,00102$
                           4568 ;e4vm.c:677: (*v)->mem[i] = jmp_addr;
   1D31 DD 6E FC      [19] 4569 	ld	l, -4 (ix)
   1D34 DD 66 FD      [19] 4570 	ld	h, -3 (ix)
   1D37 7E            [ 7] 4571 	ld	a, (hl)
   1D38 23            [ 6] 4572 	inc	hl
   1D39 66            [ 7] 4573 	ld	h, (hl)
   1D3A 6F            [ 4] 4574 	ld	l, a
   1D3B D5            [11] 4575 	push	de
   1D3C 11 8A 00      [10] 4576 	ld	de, #0x008a
   1D3F 19            [11] 4577 	add	hl, de
   1D40 D1            [10] 4578 	pop	de
   1D41 7D            [ 4] 4579 	ld	a, l
   1D42 DD 86 FE      [19] 4580 	add	a, -2 (ix)
   1D45 6F            [ 4] 4581 	ld	l, a
   1D46 7C            [ 4] 4582 	ld	a, h
   1D47 DD 8E FF      [19] 4583 	adc	a, -1 (ix)
   1D4A 67            [ 4] 4584 	ld	h, a
   1D4B DD 7E FA      [19] 4585 	ld	a, -6 (ix)
   1D4E 77            [ 7] 4586 	ld	(hl), a
   1D4F 23            [ 6] 4587 	inc	hl
   1D50 DD 7E FB      [19] 4588 	ld	a, -5 (ix)
   1D53 77            [ 7] 4589 	ld	(hl), a
   1D54                    4590 00102$:
                           4591 ;e4vm.c:679: i += 1;
   1D54 13            [ 6] 4592 	inc	de
   1D55 18 9C         [12] 4593 	jr	00103$
   1D57                    4594 00105$:
                           4595 ;e4vm.c:681: e4vm_core_do_list(v);
   1D57 C5            [11] 4596 	push	bc
   1D58 DD 6E FC      [19] 4597 	ld	l, -4 (ix)
   1D5B DD 66 FD      [19] 4598 	ld	h, -3 (ix)
   1D5E E5            [11] 4599 	push	hl
   1D5F CDr00r00      [17] 4600 	call	_e4vm_core_do_list
   1D62 F1            [10] 4601 	pop	af
   1D63 DD 6E 04      [19] 4602 	ld	l, 4 (ix)
   1D66 DD 66 05      [19] 4603 	ld	h, 5 (ix)
   1D69 E5            [11] 4604 	push	hl
   1D6A CDr00r00      [17] 4605 	call	_e4vm_core_do_next
   1D6D F1            [10] 4606 	pop	af
                           4607 ;e4vm.c:683: if ((*v)->ds[(*v)->ds_p - 1] == 2) {
   1D6E E1            [10] 4608 	pop	hl
   1D6F 4E            [ 7] 4609 	ld	c, (hl)
   1D70 23            [ 6] 4610 	inc	hl
   1D71 46            [ 7] 4611 	ld	b, (hl)
   1D72 21 44 00      [10] 4612 	ld	hl, #0x0044
   1D75 09            [11] 4613 	add	hl, bc
   1D76 EB            [ 4] 4614 	ex	de, hl
   1D77 69            [ 4] 4615 	ld	l, c
   1D78 60            [ 4] 4616 	ld	h, b
   1D79 01 86 00      [10] 4617 	ld	bc, #0x0086
   1D7C 09            [11] 4618 	add	hl, bc
   1D7D 7E            [ 7] 4619 	ld	a, (hl)
   1D7E 3D            [ 4] 4620 	dec	a
   1D7F 87            [ 4] 4621 	add	a, a
   1D80 6F            [ 4] 4622 	ld	l, a
   1D81 26 00         [ 7] 4623 	ld	h, #0x00
   1D83 19            [11] 4624 	add	hl, de
   1D84 4E            [ 7] 4625 	ld	c, (hl)
   1D85 23            [ 6] 4626 	inc	hl
   1D86 46            [ 7] 4627 	ld	b, (hl)
   1D87 79            [ 4] 4628 	ld	a, c
   1D88 D6 02         [ 7] 4629 	sub	a, #0x02
   1D8A B0            [ 4] 4630 	or	a, b
   1D8B 20 0B         [12] 4631 	jr	NZ,00107$
                           4632 ;e4vm.c:684: Console_WriteStrLn((CHAR*)" - ok", 6);
   1D8D 21rD0r1D      [10] 4633 	ld	hl, #___str_132
   1D90 CDr00r00      [17] 4634 	call	_Console_WriteStr_C_COMPACT
   1D93 CDr00r00      [17] 4635 	call	_Console_WriteLn_COMPACT
   1D96 18 09         [12] 4636 	jr	00109$
   1D98                    4637 00107$:
                           4638 ;e4vm.c:686: Console_WriteStrLn((CHAR*)" - error", 9);
   1D98 21rD6r1D      [10] 4639 	ld	hl, #___str_133
   1D9B CDr00r00      [17] 4640 	call	_Console_WriteStr_C_COMPACT
   1D9E CDr00r00      [17] 4641 	call	_Console_WriteLn_COMPACT
   1DA1                    4642 00109$:
                           4643 ;e4vm.c:688: }
   1DA1 DD F9         [10] 4644 	ld	sp, ix
   1DA3 DD E1         [14] 4645 	pop	ix
   1DA5 C9            [10] 4646 	ret
   1DA6                    4647 ___str_126:
   1DA6 54 65 73 74 20 62  4648 	.ascii "Test branch "
        72 61 6E 63 68 20
   1DB2 00                 4649 	.db 0x00
   1DB3                    4650 ___str_127:
   1DB3 64 6F 6C 69 73 74  4651 	.ascii "dolist"
   1DB9 00                 4652 	.db 0x00
   1DBA                    4653 ___str_128:
   1DBA 6E 6F 70           4654 	.ascii "nop"
   1DBD 00                 4655 	.db 0x00
   1DBE                    4656 ___str_129:
   1DBE 62 72 61 6E 63 68  4657 	.ascii "branch"
   1DC4 00                 4658 	.db 0x00
   1DC5                    4659 ___str_130:
   1DC5 64 6F 6C 69 74     4660 	.ascii "dolit"
   1DCA 00                 4661 	.db 0x00
   1DCB                    4662 ___str_131:
   1DCB 65 78 69 74        4663 	.ascii "exit"
   1DCF 00                 4664 	.db 0x00
   1DD0                    4665 ___str_132:
   1DD0 20 2D 20 6F 6B     4666 	.ascii " - ok"
   1DD5 00                 4667 	.db 0x00
   1DD6                    4668 ___str_133:
   1DD6 20 2D 20 65 72 72  4669 	.ascii " - error"
        6F 72
   1DDE 00                 4670 	.db 0x00
                           4671 ;e4vm.c:690: static void e4vm_test_zbranch (e4vm_type_x4thPtr *v)
                           4672 ;	---------------------------------
                           4673 ; Function e4vm_test_zbranch
                           4674 ; ---------------------------------
   1DDF                    4675 _e4vm_test_zbranch:
   1DDF CDr00r00      [17] 4676 	call	___sdcc_enter_ix
   1DE2 21 9A FF      [10] 4677 	ld	hl, #-102
   1DE5 39            [11] 4678 	add	hl, sp
   1DE6 F9            [ 6] 4679 	ld	sp, hl
                           4680 ;e4vm.c:702: Console_WriteStr((CHAR*)"Test 0branch ", 14);
   1DE7 21rF7r20      [10] 4681 	ld	hl, #___str_134
   1DEA CDr00r00      [17] 4682 	call	_Console_WriteStr_C_COMPACT
                           4683 ;e4vm.c:703: e4vm_utils_init(v);
   1DED DD 6E 04      [19] 4684 	ld	l, 4 (ix)
   1DF0 DD 66 05      [19] 4685 	ld	h, 5 (ix)
   1DF3 E5            [11] 4686 	push	hl
   1DF4 CDr00r00      [17] 4687 	call	_e4vm_utils_init
   1DF7 F1            [10] 4688 	pop	af
                           4689 ;e4vm.c:704: e4vm_core_add_core_words(v);
   1DF8 DD 6E 04      [19] 4690 	ld	l, 4 (ix)
   1DFB DD 66 05      [19] 4691 	ld	h, 5 (ix)
   1DFE E5            [11] 4692 	push	hl
   1DFF CDr00r00      [17] 4693 	call	_e4vm_core_add_core_words
   1E02 F1            [10] 4694 	pop	af
                           4695 ;e4vm.c:705: e4vm_core_ext_add_core_words(v);
   1E03 DD 6E 04      [19] 4696 	ld	l, 4 (ix)
   1E06 DD 66 05      [19] 4697 	ld	h, 5 (ix)
   1E09 E5            [11] 4698 	push	hl
   1E0A CDr00r00      [17] 4699 	call	_e4vm_core_ext_add_core_words
   1E0D F1            [10] 4700 	pop	af
                           4701 ;e4vm.c:706: e4vm_utils_here_to_wp(v);
   1E0E DD 6E 04      [19] 4702 	ld	l, 4 (ix)
   1E11 DD 66 05      [19] 4703 	ld	h, 5 (ix)
   1E14 E5            [11] 4704 	push	hl
   1E15 CDr00r00      [17] 4705 	call	_e4vm_utils_here_to_wp
   1E18 F1            [10] 4706 	pop	af
                           4707 ;e4vm.c:707: start_addr = (*v)->hereP;
   1E19 DD 7E 04      [19] 4708 	ld	a, 4 (ix)
   1E1C DD 77 F4      [19] 4709 	ld	-12 (ix), a
   1E1F DD 7E 05      [19] 4710 	ld	a, 5 (ix)
   1E22 DD 77 F5      [19] 4711 	ld	-11 (ix), a
   1E25 DD 6E F4      [19] 4712 	ld	l, -12 (ix)
   1E28 DD 66 F5      [19] 4713 	ld	h, -11 (ix)
   1E2B 4E            [ 7] 4714 	ld	c, (hl)
   1E2C 23            [ 6] 4715 	inc	hl
   1E2D 66            [ 7] 4716 	ld	h, (hl)
   1E2E 69            [ 4] 4717 	ld	l, c
   1E2F 11 88 00      [10] 4718 	ld	de, #0x0088
   1E32 19            [11] 4719 	add	hl, de
   1E33 7E            [ 7] 4720 	ld	a, (hl)
   1E34 DD 77 F6      [19] 4721 	ld	-10 (ix), a
   1E37 23            [ 6] 4722 	inc	hl
   1E38 7E            [ 7] 4723 	ld	a, (hl)
   1E39 DD 77 F7      [19] 4724 	ld	-9 (ix), a
                           4725 ;e4vm.c:708: __MOVE((CHAR*)"dolist", _str__124, 7);
   1E3C 21 00 00      [10] 4726 	ld	hl, #0
   1E3F 39            [11] 4727 	add	hl, sp
   1E40 EB            [ 4] 4728 	ex	de, hl
   1E41 4B            [ 4] 4729 	ld	c, e
   1E42 42            [ 4] 4730 	ld	b, d
   1E43 D5            [11] 4731 	push	de
   1E44 21 07 00      [10] 4732 	ld	hl, #0x0007
   1E47 E5            [11] 4733 	push	hl
   1E48 21r05r21      [10] 4734 	ld	hl, #___str_135
   1E4B E5            [11] 4735 	push	hl
   1E4C C5            [11] 4736 	push	bc
   1E4D CDr00r00      [17] 4737 	call	_memcpy
   1E50 F1            [10] 4738 	pop	af
   1E51 F1            [10] 4739 	pop	af
   1E52 F1            [10] 4740 	pop	af
   1E53 DD 6E F4      [19] 4741 	ld	l, -12 (ix)
   1E56 DD 66 F5      [19] 4742 	ld	h, -11 (ix)
   1E59 E5            [11] 4743 	push	hl
   1E5A CDr00r00      [17] 4744 	call	_e4vm_utils_add_op_from_string
   1E5D F1            [10] 4745 	pop	af
   1E5E F1            [10] 4746 	pop	af
                           4747 ;e4vm.c:710: __MOVE((CHAR*)"nop", _str__123, 4);
   1E5F 21 0A 00      [10] 4748 	ld	hl, #10
   1E62 39            [11] 4749 	add	hl, sp
   1E63 EB            [ 4] 4750 	ex	de, hl
   1E64 4B            [ 4] 4751 	ld	c, e
   1E65 42            [ 4] 4752 	ld	b, d
   1E66 D5            [11] 4753 	push	de
   1E67 21 04 00      [10] 4754 	ld	hl, #0x0004
   1E6A E5            [11] 4755 	push	hl
   1E6B 21r0Cr21      [10] 4756 	ld	hl, #___str_136
   1E6E E5            [11] 4757 	push	hl
   1E6F C5            [11] 4758 	push	bc
   1E70 CDr00r00      [17] 4759 	call	_memcpy
   1E73 F1            [10] 4760 	pop	af
   1E74 F1            [10] 4761 	pop	af
   1E75 F1            [10] 4762 	pop	af
   1E76 DD 6E 04      [19] 4763 	ld	l, 4 (ix)
   1E79 DD 66 05      [19] 4764 	ld	h, 5 (ix)
   1E7C E5            [11] 4765 	push	hl
   1E7D CDr00r00      [17] 4766 	call	_e4vm_utils_add_op_from_string
   1E80 F1            [10] 4767 	pop	af
   1E81 F1            [10] 4768 	pop	af
                           4769 ;e4vm.c:712: __MOVE((CHAR*)"nop", _str__122, 4);
   1E82 21 14 00      [10] 4770 	ld	hl, #20
   1E85 39            [11] 4771 	add	hl, sp
   1E86 EB            [ 4] 4772 	ex	de, hl
   1E87 4B            [ 4] 4773 	ld	c, e
   1E88 42            [ 4] 4774 	ld	b, d
   1E89 D5            [11] 4775 	push	de
   1E8A 21 04 00      [10] 4776 	ld	hl, #0x0004
   1E8D E5            [11] 4777 	push	hl
   1E8E 21r0Cr21      [10] 4778 	ld	hl, #___str_136
   1E91 E5            [11] 4779 	push	hl
   1E92 C5            [11] 4780 	push	bc
   1E93 CDr00r00      [17] 4781 	call	_memcpy
   1E96 F1            [10] 4782 	pop	af
   1E97 F1            [10] 4783 	pop	af
   1E98 F1            [10] 4784 	pop	af
   1E99 DD 6E 04      [19] 4785 	ld	l, 4 (ix)
   1E9C DD 66 05      [19] 4786 	ld	h, 5 (ix)
   1E9F E5            [11] 4787 	push	hl
   1EA0 CDr00r00      [17] 4788 	call	_e4vm_utils_add_op_from_string
   1EA3 F1            [10] 4789 	pop	af
   1EA4 F1            [10] 4790 	pop	af
                           4791 ;e4vm.c:714: __MOVE((CHAR*)"nop", _str__121, 4);
   1EA5 21 1E 00      [10] 4792 	ld	hl, #30
   1EA8 39            [11] 4793 	add	hl, sp
   1EA9 EB            [ 4] 4794 	ex	de, hl
   1EAA 4B            [ 4] 4795 	ld	c, e
   1EAB 42            [ 4] 4796 	ld	b, d
   1EAC D5            [11] 4797 	push	de
   1EAD 21 04 00      [10] 4798 	ld	hl, #0x0004
   1EB0 E5            [11] 4799 	push	hl
   1EB1 21r0Cr21      [10] 4800 	ld	hl, #___str_136
   1EB4 E5            [11] 4801 	push	hl
   1EB5 C5            [11] 4802 	push	bc
   1EB6 CDr00r00      [17] 4803 	call	_memcpy
   1EB9 F1            [10] 4804 	pop	af
   1EBA F1            [10] 4805 	pop	af
   1EBB F1            [10] 4806 	pop	af
   1EBC DD 6E 04      [19] 4807 	ld	l, 4 (ix)
   1EBF DD 66 05      [19] 4808 	ld	h, 5 (ix)
   1EC2 E5            [11] 4809 	push	hl
   1EC3 CDr00r00      [17] 4810 	call	_e4vm_utils_add_op_from_string
   1EC6 F1            [10] 4811 	pop	af
   1EC7 F1            [10] 4812 	pop	af
                           4813 ;e4vm.c:716: __MOVE((CHAR*)"0branch", _str__120, 8);
   1EC8 21 28 00      [10] 4814 	ld	hl, #40
   1ECB 39            [11] 4815 	add	hl, sp
   1ECC EB            [ 4] 4816 	ex	de, hl
   1ECD 4B            [ 4] 4817 	ld	c, e
   1ECE 42            [ 4] 4818 	ld	b, d
   1ECF D5            [11] 4819 	push	de
   1ED0 21 08 00      [10] 4820 	ld	hl, #0x0008
   1ED3 E5            [11] 4821 	push	hl
   1ED4 21r10r21      [10] 4822 	ld	hl, #___str_137
   1ED7 E5            [11] 4823 	push	hl
   1ED8 C5            [11] 4824 	push	bc
   1ED9 CDr00r00      [17] 4825 	call	_memcpy
   1EDC F1            [10] 4826 	pop	af
   1EDD F1            [10] 4827 	pop	af
   1EDE F1            [10] 4828 	pop	af
   1EDF DD 6E 04      [19] 4829 	ld	l, 4 (ix)
   1EE2 DD 66 05      [19] 4830 	ld	h, 5 (ix)
   1EE5 E5            [11] 4831 	push	hl
   1EE6 CDr00r00      [17] 4832 	call	_e4vm_utils_add_op_from_string
   1EE9 F1            [10] 4833 	pop	af
                           4834 ;e4vm.c:718: e4vm_utils_add_op(v, 77);
   1EEA 21 4D 00      [10] 4835 	ld	hl, #0x004d
   1EED E3            [19] 4836 	ex	(sp),hl
   1EEE DD 6E 04      [19] 4837 	ld	l, 4 (ix)
   1EF1 DD 66 05      [19] 4838 	ld	h, 5 (ix)
   1EF4 E5            [11] 4839 	push	hl
   1EF5 CDr00r00      [17] 4840 	call	_e4vm_utils_add_op
   1EF8 F1            [10] 4841 	pop	af
   1EF9 F1            [10] 4842 	pop	af
                           4843 ;e4vm.c:719: __MOVE((CHAR*)"dolit", _str__119, 6);
   1EFA 21 32 00      [10] 4844 	ld	hl, #50
   1EFD 39            [11] 4845 	add	hl, sp
   1EFE EB            [ 4] 4846 	ex	de, hl
   1EFF 4B            [ 4] 4847 	ld	c, e
   1F00 42            [ 4] 4848 	ld	b, d
   1F01 D5            [11] 4849 	push	de
   1F02 21 06 00      [10] 4850 	ld	hl, #0x0006
   1F05 E5            [11] 4851 	push	hl
   1F06 21r18r21      [10] 4852 	ld	hl, #___str_138
   1F09 E5            [11] 4853 	push	hl
   1F0A C5            [11] 4854 	push	bc
   1F0B CDr00r00      [17] 4855 	call	_memcpy
   1F0E F1            [10] 4856 	pop	af
   1F0F F1            [10] 4857 	pop	af
   1F10 F1            [10] 4858 	pop	af
   1F11 DD 6E 04      [19] 4859 	ld	l, 4 (ix)
   1F14 DD 66 05      [19] 4860 	ld	h, 5 (ix)
   1F17 E5            [11] 4861 	push	hl
   1F18 CDr00r00      [17] 4862 	call	_e4vm_utils_add_op_from_string
   1F1B F1            [10] 4863 	pop	af
                           4864 ;e4vm.c:721: e4vm_utils_add_op(v, 1);
   1F1C 21 01 00      [10] 4865 	ld	hl, #0x0001
   1F1F E3            [19] 4866 	ex	(sp),hl
   1F20 DD 6E 04      [19] 4867 	ld	l, 4 (ix)
   1F23 DD 66 05      [19] 4868 	ld	h, 5 (ix)
   1F26 E5            [11] 4869 	push	hl
   1F27 CDr00r00      [17] 4870 	call	_e4vm_utils_add_op
   1F2A F1            [10] 4871 	pop	af
   1F2B F1            [10] 4872 	pop	af
                           4873 ;e4vm.c:722: __MOVE((CHAR*)"exit", _str__118, 5);
   1F2C 21 3C 00      [10] 4874 	ld	hl, #60
   1F2F 39            [11] 4875 	add	hl, sp
   1F30 EB            [ 4] 4876 	ex	de, hl
   1F31 4B            [ 4] 4877 	ld	c, e
   1F32 42            [ 4] 4878 	ld	b, d
   1F33 D5            [11] 4879 	push	de
   1F34 21 05 00      [10] 4880 	ld	hl, #0x0005
   1F37 E5            [11] 4881 	push	hl
   1F38 21r1Er21      [10] 4882 	ld	hl, #___str_139
   1F3B E5            [11] 4883 	push	hl
   1F3C C5            [11] 4884 	push	bc
   1F3D CDr00r00      [17] 4885 	call	_memcpy
   1F40 F1            [10] 4886 	pop	af
   1F41 F1            [10] 4887 	pop	af
   1F42 F1            [10] 4888 	pop	af
   1F43 DD 6E 04      [19] 4889 	ld	l, 4 (ix)
   1F46 DD 66 05      [19] 4890 	ld	h, 5 (ix)
   1F49 E5            [11] 4891 	push	hl
   1F4A CDr00r00      [17] 4892 	call	_e4vm_utils_add_op_from_string
   1F4D F1            [10] 4893 	pop	af
   1F4E F1            [10] 4894 	pop	af
                           4895 ;e4vm.c:724: jmp_addr = (*v)->hereP;
   1F4F DD 7E F4      [19] 4896 	ld	a, -12 (ix)
   1F52 DD 77 F8      [19] 4897 	ld	-8 (ix), a
   1F55 DD 7E F5      [19] 4898 	ld	a, -11 (ix)
   1F58 DD 77 F9      [19] 4899 	ld	-7 (ix), a
   1F5B DD 6E F4      [19] 4900 	ld	l, -12 (ix)
   1F5E DD 66 F5      [19] 4901 	ld	h, -11 (ix)
   1F61 4E            [ 7] 4902 	ld	c, (hl)
   1F62 23            [ 6] 4903 	inc	hl
   1F63 66            [ 7] 4904 	ld	h, (hl)
   1F64 69            [ 4] 4905 	ld	l, c
   1F65 11 88 00      [10] 4906 	ld	de, #0x0088
   1F68 19            [11] 4907 	add	hl, de
   1F69 7E            [ 7] 4908 	ld	a, (hl)
   1F6A DD 77 FA      [19] 4909 	ld	-6 (ix), a
   1F6D 23            [ 6] 4910 	inc	hl
   1F6E 7E            [ 7] 4911 	ld	a, (hl)
   1F6F DD 77 FB      [19] 4912 	ld	-5 (ix), a
                           4913 ;e4vm.c:725: __MOVE((CHAR*)"dolit", _str__117, 6);
   1F72 21 46 00      [10] 4914 	ld	hl, #70
   1F75 39            [11] 4915 	add	hl, sp
   1F76 EB            [ 4] 4916 	ex	de, hl
   1F77 4B            [ 4] 4917 	ld	c, e
   1F78 42            [ 4] 4918 	ld	b, d
   1F79 D5            [11] 4919 	push	de
   1F7A 21 06 00      [10] 4920 	ld	hl, #0x0006
   1F7D E5            [11] 4921 	push	hl
   1F7E 21r18r21      [10] 4922 	ld	hl, #___str_138
   1F81 E5            [11] 4923 	push	hl
   1F82 C5            [11] 4924 	push	bc
   1F83 CDr00r00      [17] 4925 	call	_memcpy
   1F86 F1            [10] 4926 	pop	af
   1F87 F1            [10] 4927 	pop	af
   1F88 F1            [10] 4928 	pop	af
   1F89 DD 6E F4      [19] 4929 	ld	l, -12 (ix)
   1F8C DD 66 F5      [19] 4930 	ld	h, -11 (ix)
   1F8F E5            [11] 4931 	push	hl
   1F90 CDr00r00      [17] 4932 	call	_e4vm_utils_add_op_from_string
   1F93 F1            [10] 4933 	pop	af
                           4934 ;e4vm.c:727: e4vm_utils_add_op(v, 2);
   1F94 21 02 00      [10] 4935 	ld	hl, #0x0002
   1F97 E3            [19] 4936 	ex	(sp),hl
   1F98 DD 6E 04      [19] 4937 	ld	l, 4 (ix)
   1F9B DD 66 05      [19] 4938 	ld	h, 5 (ix)
   1F9E E5            [11] 4939 	push	hl
   1F9F CDr00r00      [17] 4940 	call	_e4vm_utils_add_op
   1FA2 F1            [10] 4941 	pop	af
   1FA3 F1            [10] 4942 	pop	af
                           4943 ;e4vm.c:728: __MOVE((CHAR*)"exit", _str__116, 5);
   1FA4 21 50 00      [10] 4944 	ld	hl, #80
   1FA7 39            [11] 4945 	add	hl, sp
   1FA8 EB            [ 4] 4946 	ex	de, hl
   1FA9 4B            [ 4] 4947 	ld	c, e
   1FAA 42            [ 4] 4948 	ld	b, d
   1FAB D5            [11] 4949 	push	de
   1FAC 21 05 00      [10] 4950 	ld	hl, #0x0005
   1FAF E5            [11] 4951 	push	hl
   1FB0 21r1Er21      [10] 4952 	ld	hl, #___str_139
   1FB3 E5            [11] 4953 	push	hl
   1FB4 C5            [11] 4954 	push	bc
   1FB5 CDr00r00      [17] 4955 	call	_memcpy
   1FB8 F1            [10] 4956 	pop	af
   1FB9 F1            [10] 4957 	pop	af
   1FBA F1            [10] 4958 	pop	af
   1FBB DD 6E 04      [19] 4959 	ld	l, 4 (ix)
   1FBE DD 66 05      [19] 4960 	ld	h, 5 (ix)
   1FC1 E5            [11] 4961 	push	hl
   1FC2 CDr00r00      [17] 4962 	call	_e4vm_utils_add_op_from_string
   1FC5 F1            [10] 4963 	pop	af
   1FC6 F1            [10] 4964 	pop	af
                           4965 ;e4vm.c:731: while (i <= 31) {
   1FC7 DD 7E F4      [19] 4966 	ld	a, -12 (ix)
   1FCA DD 77 FC      [19] 4967 	ld	-4 (ix), a
   1FCD DD 7E F5      [19] 4968 	ld	a, -11 (ix)
   1FD0 DD 77 FD      [19] 4969 	ld	-3 (ix), a
   1FD3 01 00 00      [10] 4970 	ld	bc, #0x0000
   1FD6                    4971 00103$:
   1FD6 3E 1F         [ 7] 4972 	ld	a, #0x1f
   1FD8 B9            [ 4] 4973 	cp	a, c
   1FD9 3E 00         [ 7] 4974 	ld	a, #0x00
   1FDB 98            [ 4] 4975 	sbc	a, b
   1FDC E2rE1r1F      [10] 4976 	jp	PO, 00140$
   1FDF EE 80         [ 7] 4977 	xor	a, #0x80
   1FE1                    4978 00140$:
   1FE1 FAr2Fr20      [10] 4979 	jp	M, 00105$
                           4980 ;e4vm.c:732: if ((*v)->mem[i] == 77) {
   1FE4 DD 6E F8      [19] 4981 	ld	l, -8 (ix)
   1FE7 DD 66 F9      [19] 4982 	ld	h, -7 (ix)
   1FEA 5E            [ 7] 4983 	ld	e, (hl)
   1FEB 23            [ 6] 4984 	inc	hl
   1FEC 56            [ 7] 4985 	ld	d, (hl)
   1FED 21 8A 00      [10] 4986 	ld	hl, #0x008a
   1FF0 19            [11] 4987 	add	hl, de
   1FF1 DD 71 FE      [19] 4988 	ld	-2 (ix), c
   1FF4 DD 70 FF      [19] 4989 	ld	-1 (ix), b
   1FF7 DD CB FE 26   [23] 4990 	sla	-2 (ix)
   1FFB DD CB FF 16   [23] 4991 	rl	-1 (ix)
   1FFF DD 5E FE      [19] 4992 	ld	e, -2 (ix)
   2002 DD 56 FF      [19] 4993 	ld	d, -1 (ix)
   2005 19            [11] 4994 	add	hl, de
   2006 5E            [ 7] 4995 	ld	e, (hl)
   2007 23            [ 6] 4996 	inc	hl
   2008 56            [ 7] 4997 	ld	d, (hl)
   2009 7B            [ 4] 4998 	ld	a, e
   200A D6 4D         [ 7] 4999 	sub	a, #0x4d
   200C B2            [ 4] 5000 	or	a, d
   200D 20 1D         [12] 5001 	jr	NZ,00102$
                           5002 ;e4vm.c:733: (*v)->mem[i] = jmp_addr;
   200F DD 6E FC      [19] 5003 	ld	l, -4 (ix)
   2012 DD 66 FD      [19] 5004 	ld	h, -3 (ix)
   2015 5E            [ 7] 5005 	ld	e, (hl)
   2016 23            [ 6] 5006 	inc	hl
   2017 56            [ 7] 5007 	ld	d, (hl)
   2018 21 8A 00      [10] 5008 	ld	hl, #0x008a
   201B 19            [11] 5009 	add	hl, de
   201C DD 5E FE      [19] 5010 	ld	e, -2 (ix)
   201F DD 56 FF      [19] 5011 	ld	d, -1 (ix)
   2022 19            [11] 5012 	add	hl, de
   2023 DD 7E FA      [19] 5013 	ld	a, -6 (ix)
   2026 77            [ 7] 5014 	ld	(hl), a
   2027 23            [ 6] 5015 	inc	hl
   2028 DD 7E FB      [19] 5016 	ld	a, -5 (ix)
   202B 77            [ 7] 5017 	ld	(hl), a
   202C                    5018 00102$:
                           5019 ;e4vm.c:735: i += 1;
   202C 03            [ 6] 5020 	inc	bc
   202D 18 A7         [12] 5021 	jr	00103$
   202F                    5022 00105$:
                           5023 ;e4vm.c:737: e4vm_utils_stack_ds_push(v, 0);
   202F 21 00 00      [10] 5024 	ld	hl, #0x0000
   2032 E5            [11] 5025 	push	hl
   2033 DD 6E FC      [19] 5026 	ld	l, -4 (ix)
   2036 DD 66 FD      [19] 5027 	ld	h, -3 (ix)
   2039 E5            [11] 5028 	push	hl
   203A CDr00r00      [17] 5029 	call	_e4vm_utils_stack_ds_push
   203D F1            [10] 5030 	pop	af
   203E F1            [10] 5031 	pop	af
                           5032 ;e4vm.c:738: e4vm_core_do_list(v);
   203F DD 6E 04      [19] 5033 	ld	l, 4 (ix)
   2042 DD 66 05      [19] 5034 	ld	h, 5 (ix)
   2045 E5            [11] 5035 	push	hl
   2046 CDr00r00      [17] 5036 	call	_e4vm_core_do_list
   2049 F1            [10] 5037 	pop	af
                           5038 ;e4vm.c:739: e4vm_core_do_next(v);
   204A DD 6E 04      [19] 5039 	ld	l, 4 (ix)
   204D DD 66 05      [19] 5040 	ld	h, 5 (ix)
   2050 E5            [11] 5041 	push	hl
   2051 CDr00r00      [17] 5042 	call	_e4vm_core_do_next
   2054 F1            [10] 5043 	pop	af
                           5044 ;e4vm.c:740: if ((*v)->ds[(*v)->ds_p - 1] == 2) {
   2055 DD 6E F4      [19] 5045 	ld	l, -12 (ix)
   2058 DD 66 F5      [19] 5046 	ld	h, -11 (ix)
   205B 4E            [ 7] 5047 	ld	c, (hl)
   205C 23            [ 6] 5048 	inc	hl
   205D 46            [ 7] 5049 	ld	b, (hl)
   205E 21 44 00      [10] 5050 	ld	hl, #0x0044
   2061 09            [11] 5051 	add	hl, bc
   2062 EB            [ 4] 5052 	ex	de, hl
   2063 69            [ 4] 5053 	ld	l, c
   2064 60            [ 4] 5054 	ld	h, b
   2065 01 86 00      [10] 5055 	ld	bc, #0x0086
   2068 09            [11] 5056 	add	hl, bc
   2069 7E            [ 7] 5057 	ld	a, (hl)
   206A 3D            [ 4] 5058 	dec	a
   206B 87            [ 4] 5059 	add	a, a
   206C 6F            [ 4] 5060 	ld	l, a
   206D 26 00         [ 7] 5061 	ld	h, #0x00
   206F 19            [11] 5062 	add	hl, de
   2070 4E            [ 7] 5063 	ld	c, (hl)
   2071 23            [ 6] 5064 	inc	hl
   2072 46            [ 7] 5065 	ld	b, (hl)
   2073 79            [ 4] 5066 	ld	a, c
   2074 D6 02         [ 7] 5067 	sub	a, #0x02
   2076 B0            [ 4] 5068 	or	a, b
   2077 20 08         [12] 5069 	jr	NZ,00107$
                           5070 ;e4vm.c:741: Console_WriteStr((CHAR*)" - ok", 6);
   2079 21r23r21      [10] 5071 	ld	hl, #___str_140
   207C CDr00r00      [17] 5072 	call	_Console_WriteStr_C_COMPACT
   207F 18 06         [12] 5073 	jr	00108$
   2081                    5074 00107$:
                           5075 ;e4vm.c:743: Console_WriteStr((CHAR*)" - error", 9);
   2081 21r29r21      [10] 5076 	ld	hl, #___str_141
   2084 CDr00r00      [17] 5077 	call	_Console_WriteStr_C_COMPACT
   2087                    5078 00108$:
                           5079 ;e4vm.c:745: (*v)->wp = start_addr;
   2087 DD 6E F4      [19] 5080 	ld	l, -12 (ix)
   208A DD 66 F5      [19] 5081 	ld	h, -11 (ix)
   208D 4E            [ 7] 5082 	ld	c, (hl)
   208E 23            [ 6] 5083 	inc	hl
   208F 46            [ 7] 5084 	ld	b, (hl)
   2090 03            [ 6] 5085 	inc	bc
   2091 03            [ 6] 5086 	inc	bc
   2092 DD 7E F6      [19] 5087 	ld	a, -10 (ix)
   2095 02            [ 7] 5088 	ld	(bc), a
   2096 03            [ 6] 5089 	inc	bc
   2097 DD 7E F7      [19] 5090 	ld	a, -9 (ix)
   209A 02            [ 7] 5091 	ld	(bc), a
                           5092 ;e4vm.c:746: e4vm_utils_stack_ds_push(v, 1);
   209B 21 01 00      [10] 5093 	ld	hl, #0x0001
   209E E5            [11] 5094 	push	hl
   209F DD 6E F4      [19] 5095 	ld	l, -12 (ix)
   20A2 DD 66 F5      [19] 5096 	ld	h, -11 (ix)
   20A5 E5            [11] 5097 	push	hl
   20A6 CDr00r00      [17] 5098 	call	_e4vm_utils_stack_ds_push
   20A9 F1            [10] 5099 	pop	af
   20AA F1            [10] 5100 	pop	af
                           5101 ;e4vm.c:747: e4vm_core_do_list(v);
   20AB DD 6E FC      [19] 5102 	ld	l, -4 (ix)
   20AE DD 66 FD      [19] 5103 	ld	h, -3 (ix)
   20B1 E5            [11] 5104 	push	hl
   20B2 CDr00r00      [17] 5105 	call	_e4vm_core_do_list
   20B5 F1            [10] 5106 	pop	af
                           5107 ;e4vm.c:748: e4vm_core_do_next(v);
   20B6 DD 6E 04      [19] 5108 	ld	l, 4 (ix)
   20B9 DD 66 05      [19] 5109 	ld	h, 5 (ix)
   20BC E5            [11] 5110 	push	hl
   20BD CDr00r00      [17] 5111 	call	_e4vm_core_do_next
   20C0 F1            [10] 5112 	pop	af
                           5113 ;e4vm.c:749: if ((*v)->ds[(*v)->ds_p - 1] == 1) {
   20C1 DD 6E F4      [19] 5114 	ld	l, -12 (ix)
   20C4 DD 66 F5      [19] 5115 	ld	h, -11 (ix)
   20C7 4E            [ 7] 5116 	ld	c, (hl)
   20C8 23            [ 6] 5117 	inc	hl
   20C9 46            [ 7] 5118 	ld	b, (hl)
   20CA 21 44 00      [10] 5119 	ld	hl, #0x0044
   20CD 09            [11] 5120 	add	hl, bc
   20CE EB            [ 4] 5121 	ex	de, hl
   20CF 69            [ 4] 5122 	ld	l, c
   20D0 60            [ 4] 5123 	ld	h, b
   20D1 01 86 00      [10] 5124 	ld	bc, #0x0086
   20D4 09            [11] 5125 	add	hl, bc
   20D5 7E            [ 7] 5126 	ld	a, (hl)
   20D6 3D            [ 4] 5127 	dec	a
   20D7 87            [ 4] 5128 	add	a, a
   20D8 6F            [ 4] 5129 	ld	l, a
   20D9 26 00         [ 7] 5130 	ld	h, #0x00
   20DB 19            [11] 5131 	add	hl, de
   20DC 4E            [ 7] 5132 	ld	c, (hl)
   20DD 23            [ 6] 5133 	inc	hl
   20DE 46            [ 7] 5134 	ld	b, (hl)
   20DF 79            [ 4] 5135 	ld	a, c
   20E0 3D            [ 4] 5136 	dec	a
   20E1 B0            [ 4] 5137 	or	a, b
   20E2 20 08         [12] 5138 	jr	NZ,00110$
                           5139 ;e4vm.c:750: Console_WriteStr((CHAR*)" - ok", 6);
   20E4 21r23r21      [10] 5140 	ld	hl, #___str_140
   20E7 CDr00r00      [17] 5141 	call	_Console_WriteStr_C_COMPACT
   20EA 18 06         [12] 5142 	jr	00112$
   20EC                    5143 00110$:
                           5144 ;e4vm.c:752: Console_WriteStr((CHAR*)" - error", 9);
   20EC 21r29r21      [10] 5145 	ld	hl, #___str_141
   20EF CDr00r00      [17] 5146 	call	_Console_WriteStr_C_COMPACT
   20F2                    5147 00112$:
                           5148 ;e4vm.c:754: }
   20F2 DD F9         [10] 5149 	ld	sp, ix
   20F4 DD E1         [14] 5150 	pop	ix
   20F6 C9            [10] 5151 	ret
   20F7                    5152 ___str_134:
   20F7 54 65 73 74 20 30  5153 	.ascii "Test 0branch "
        62 72 61 6E 63 68
        20
   2104 00                 5154 	.db 0x00
   2105                    5155 ___str_135:
   2105 64 6F 6C 69 73 74  5156 	.ascii "dolist"
   210B 00                 5157 	.db 0x00
   210C                    5158 ___str_136:
   210C 6E 6F 70           5159 	.ascii "nop"
   210F 00                 5160 	.db 0x00
   2110                    5161 ___str_137:
   2110 30 62 72 61 6E 63  5162 	.ascii "0branch"
        68
   2117 00                 5163 	.db 0x00
   2118                    5164 ___str_138:
   2118 64 6F 6C 69 74     5165 	.ascii "dolit"
   211D 00                 5166 	.db 0x00
   211E                    5167 ___str_139:
   211E 65 78 69 74        5168 	.ascii "exit"
   2122 00                 5169 	.db 0x00
   2123                    5170 ___str_140:
   2123 20 2D 20 6F 6B     5171 	.ascii " - ok"
   2128 00                 5172 	.db 0x00
   2129                    5173 ___str_141:
   2129 20 2D 20 65 72 72  5174 	.ascii " - error"
        6F 72
   2131 00                 5175 	.db 0x00
                           5176 ;e4vm.c:756: static void e4vm_test_read_char (e4vm_type_x4thPtr *v)
                           5177 ;	---------------------------------
                           5178 ; Function e4vm_test_read_char
                           5179 ; ---------------------------------
   2132                    5180 _e4vm_test_read_char:
   2132 CDr00r00      [17] 5181 	call	___sdcc_enter_ix
                           5182 ;e4vm.c:761: Console_WriteStr((CHAR*)"read_char test ", 16);
   2135 21r66r21      [10] 5183 	ld	hl, #___str_142
   2138 CDr00r00      [17] 5184 	call	_Console_WriteStr_C_COMPACT
                           5185 ;e4vm.c:762: e4vm_utils_init(v);
   213B DD 6E 04      [19] 5186 	ld	l, 4 (ix)
   213E DD 66 05      [19] 5187 	ld	h, 5 (ix)
   2141 E5            [11] 5188 	push	hl
   2142 CDr00r00      [17] 5189 	call	_e4vm_utils_init
   2145 F1            [10] 5190 	pop	af
                           5191 ;e4vm.c:763: ch = e4vm_utils_read_char(v);
   2146 DD 6E 04      [19] 5192 	ld	l, 4 (ix)
   2149 DD 66 05      [19] 5193 	ld	h, 5 (ix)
   214C E5            [11] 5194 	push	hl
   214D CDr00r00      [17] 5195 	call	_e4vm_utils_read_char
   2150 F1            [10] 5196 	pop	af
   2151 4D            [ 4] 5197 	ld	c, l
                           5198 ;e4vm.c:764: Console_WriteInt(ch);
   2152 69            [ 4] 5199 	ld	l, c
   2153 26 00         [ 7] 5200 	ld	h, #0x00
   2155 C5            [11] 5201 	push	bc
   2156 CDr00r00      [17] 5202 	call	_Console_WriteInt_COMPACT
   2159 C1            [10] 5203 	pop	bc
                           5204 ;e4vm.c:765: Console_WriteCh((CHAR)ch);
   215A 69            [ 4] 5205 	ld	l, c
   215B CDr00r00      [17] 5206 	call	_Console_WriteCh_COMPACT
                           5207 ;e4vm.c:766: Console_WriteStr((CHAR*)" - ok", 6);
   215E 21r76r21      [10] 5208 	ld	hl, #___str_143
                           5209 ;e4vm.c:767: }
   2161 DD E1         [14] 5210 	pop	ix
   2163 C3r00r00      [10] 5211 	jp	_Console_WriteStr_C_COMPACT
   2166                    5212 ___str_142:
   2166 72 65 61 64 5F 63  5213 	.ascii "read_char test "
        68 61 72 20 74 65
        73 74 20
   2175 00                 5214 	.db 0x00
   2176                    5215 ___str_143:
   2176 20 2D 20 6F 6B     5216 	.ascii " - ok"
   217B 00                 5217 	.db 0x00
                           5218 ;e4vm.c:769: static void e4vm_test_read_string (e4vm_type_x4thPtr *v)
                           5219 ;	---------------------------------
                           5220 ; Function e4vm_test_read_string
                           5221 ; ---------------------------------
   217C                    5222 _e4vm_test_read_string:
   217C CDr00r00      [17] 5223 	call	___sdcc_enter_ix
                           5224 ;e4vm.c:772: Console_WriteStr((CHAR*)"read_string test ", 18);
   217F 21rABr21      [10] 5225 	ld	hl, #___str_144
   2182 CDr00r00      [17] 5226 	call	_Console_WriteStr_C_COMPACT
                           5227 ;e4vm.c:773: e4vm_utils_read_string(v);
   2185 DD 6E 04      [19] 5228 	ld	l, 4 (ix)
   2188 DD 66 05      [19] 5229 	ld	h, 5 (ix)
   218B E5            [11] 5230 	push	hl
   218C CDr00r00      [17] 5231 	call	_e4vm_utils_read_string
   218F F1            [10] 5232 	pop	af
                           5233 ;e4vm.c:774: _ptr__98 = *v;
   2190 DD 6E 04      [19] 5234 	ld	l, 4 (ix)
   2193 DD 66 05      [19] 5235 	ld	h, 5 (ix)
   2196 4E            [ 7] 5236 	ld	c, (hl)
   2197 23            [ 6] 5237 	inc	hl
   2198 46            [ 7] 5238 	ld	b, (hl)
                           5239 ;e4vm.c:775: Console_WriteStrLn((void*)_ptr__98->in_string, 64);
   2199 21 CF 02      [10] 5240 	ld	hl, #0x02cf
   219C 09            [11] 5241 	add	hl, bc
   219D CDr00r00      [17] 5242 	call	_Console_WriteStr_C_COMPACT
   21A0 CDr00r00      [17] 5243 	call	_Console_WriteLn_COMPACT
                           5244 ;e4vm.c:776: Console_WriteStr((CHAR*)" - ok", 6);
   21A3 21rBDr21      [10] 5245 	ld	hl, #___str_145
                           5246 ;e4vm.c:777: }
   21A6 DD E1         [14] 5247 	pop	ix
   21A8 C3r00r00      [10] 5248 	jp	_Console_WriteStr_C_COMPACT
   21AB                    5249 ___str_144:
   21AB 72 65 61 64 5F 73  5250 	.ascii "read_string test "
        74 72 69 6E 67 20
        74 65 73 74 20
   21BC 00                 5251 	.db 0x00
   21BD                    5252 ___str_145:
   21BD 20 2D 20 6F 6B     5253 	.ascii " - ok"
   21C2 00                 5254 	.db 0x00
                           5255 ;e4vm.c:779: static void e4vm_test_immediate (e4vm_type_x4thPtr *v)
                           5256 ;	---------------------------------
                           5257 ; Function e4vm_test_immediate
                           5258 ; ---------------------------------
   21C3                    5259 _e4vm_test_immediate:
   21C3 CDr00r00      [17] 5260 	call	___sdcc_enter_ix
   21C6 21 D8 FF      [10] 5261 	ld	hl, #-40
   21C9 39            [11] 5262 	add	hl, sp
   21CA F9            [ 6] 5263 	ld	sp, hl
                           5264 ;e4vm.c:785: Console_WriteStr((CHAR*)"Test immediate ", 16);
   21CB 21r03r23      [10] 5265 	ld	hl, #___str_146
   21CE CDr00r00      [17] 5266 	call	_Console_WriteStr_C_COMPACT
                           5267 ;e4vm.c:786: e4vm_utils_init(v);
   21D1 DD 6E 04      [19] 5268 	ld	l, 4 (ix)
   21D4 DD 66 05      [19] 5269 	ld	h, 5 (ix)
   21D7 E5            [11] 5270 	push	hl
   21D8 CDr00r00      [17] 5271 	call	_e4vm_utils_init
   21DB F1            [10] 5272 	pop	af
                           5273 ;e4vm.c:787: e4vm_core_add_core_words(v);
   21DC DD 6E 04      [19] 5274 	ld	l, 4 (ix)
   21DF DD 66 05      [19] 5275 	ld	h, 5 (ix)
   21E2 E5            [11] 5276 	push	hl
   21E3 CDr00r00      [17] 5277 	call	_e4vm_core_add_core_words
   21E6 F1            [10] 5278 	pop	af
                           5279 ;e4vm.c:788: e4vm_core_ext_add_core_words(v);
   21E7 DD 6E 04      [19] 5280 	ld	l, 4 (ix)
   21EA DD 66 05      [19] 5281 	ld	h, 5 (ix)
   21ED E5            [11] 5282 	push	hl
   21EE CDr00r00      [17] 5283 	call	_e4vm_core_ext_add_core_words
   21F1 F1            [10] 5284 	pop	af
                           5285 ;e4vm.c:789: __MOVE((CHAR*)"hello", _str__60, 6);
   21F2 21 00 00      [10] 5286 	ld	hl, #0
   21F5 39            [11] 5287 	add	hl, sp
   21F6 EB            [ 4] 5288 	ex	de, hl
   21F7 4B            [ 4] 5289 	ld	c, e
   21F8 42            [ 4] 5290 	ld	b, d
   21F9 D5            [11] 5291 	push	de
   21FA 21 06 00      [10] 5292 	ld	hl, #0x0006
   21FD E5            [11] 5293 	push	hl
   21FE 21r13r23      [10] 5294 	ld	hl, #___str_147
   2201 E5            [11] 5295 	push	hl
   2202 C5            [11] 5296 	push	bc
   2203 CDr00r00      [17] 5297 	call	_memcpy
   2206 F1            [10] 5298 	pop	af
   2207 F1            [10] 5299 	pop	af
   2208 F1            [10] 5300 	pop	af
   2209 D1            [10] 5301 	pop	de
                           5302 ;e4vm.c:790: e4vm_utils_add_core_word(v, (void*)_str__60, e4vm_do_hello, 0);
   220A AF            [ 4] 5303 	xor	a, a
   220B F5            [11] 5304 	push	af
   220C 33            [ 6] 5305 	inc	sp
   220D 21r00r00      [10] 5306 	ld	hl, #_e4vm_do_hello
   2210 E5            [11] 5307 	push	hl
   2211 D5            [11] 5308 	push	de
   2212 DD 6E 04      [19] 5309 	ld	l, 4 (ix)
   2215 DD 66 05      [19] 5310 	ld	h, 5 (ix)
   2218 E5            [11] 5311 	push	hl
   2219 CDr00r00      [17] 5312 	call	_e4vm_utils_add_core_word
   221C F1            [10] 5313 	pop	af
   221D F1            [10] 5314 	pop	af
   221E F1            [10] 5315 	pop	af
   221F 33            [ 6] 5316 	inc	sp
                           5317 ;e4vm.c:791: e4vm_utils_here_to_wp(v);
   2220 DD 6E 04      [19] 5318 	ld	l, 4 (ix)
   2223 DD 66 05      [19] 5319 	ld	h, 5 (ix)
   2226 E5            [11] 5320 	push	hl
   2227 CDr00r00      [17] 5321 	call	_e4vm_utils_here_to_wp
   222A F1            [10] 5322 	pop	af
                           5323 ;e4vm.c:792: __MOVE((CHAR*)"dolist", _str__59, 7);
   222B 21 0A 00      [10] 5324 	ld	hl, #10
   222E 39            [11] 5325 	add	hl, sp
   222F EB            [ 4] 5326 	ex	de, hl
   2230 4B            [ 4] 5327 	ld	c, e
   2231 42            [ 4] 5328 	ld	b, d
   2232 D5            [11] 5329 	push	de
   2233 21 07 00      [10] 5330 	ld	hl, #0x0007
   2236 E5            [11] 5331 	push	hl
   2237 21r19r23      [10] 5332 	ld	hl, #___str_148
   223A E5            [11] 5333 	push	hl
   223B C5            [11] 5334 	push	bc
   223C CDr00r00      [17] 5335 	call	_memcpy
   223F F1            [10] 5336 	pop	af
   2240 F1            [10] 5337 	pop	af
   2241 F1            [10] 5338 	pop	af
   2242 DD 6E 04      [19] 5339 	ld	l, 4 (ix)
   2245 DD 66 05      [19] 5340 	ld	h, 5 (ix)
   2248 E5            [11] 5341 	push	hl
   2249 CDr00r00      [17] 5342 	call	_e4vm_utils_add_op_from_string
   224C F1            [10] 5343 	pop	af
   224D F1            [10] 5344 	pop	af
                           5345 ;e4vm.c:794: __MOVE((CHAR*)"immediate", _str__58, 10);
   224E 21 14 00      [10] 5346 	ld	hl, #20
   2251 39            [11] 5347 	add	hl, sp
   2252 EB            [ 4] 5348 	ex	de, hl
   2253 4B            [ 4] 5349 	ld	c, e
   2254 42            [ 4] 5350 	ld	b, d
   2255 D5            [11] 5351 	push	de
   2256 21 0A 00      [10] 5352 	ld	hl, #0x000a
   2259 E5            [11] 5353 	push	hl
   225A 21r20r23      [10] 5354 	ld	hl, #___str_149
   225D E5            [11] 5355 	push	hl
   225E C5            [11] 5356 	push	bc
   225F CDr00r00      [17] 5357 	call	_memcpy
   2262 F1            [10] 5358 	pop	af
   2263 F1            [10] 5359 	pop	af
   2264 F1            [10] 5360 	pop	af
   2265 DD 6E 04      [19] 5361 	ld	l, 4 (ix)
   2268 DD 66 05      [19] 5362 	ld	h, 5 (ix)
   226B E5            [11] 5363 	push	hl
   226C CDr00r00      [17] 5364 	call	_e4vm_utils_add_op_from_string
   226F F1            [10] 5365 	pop	af
   2270 F1            [10] 5366 	pop	af
                           5367 ;e4vm.c:796: __MOVE((CHAR*)"exit", _str__57, 5);
   2271 21 1E 00      [10] 5368 	ld	hl, #30
   2274 39            [11] 5369 	add	hl, sp
   2275 EB            [ 4] 5370 	ex	de, hl
   2276 4B            [ 4] 5371 	ld	c, e
   2277 42            [ 4] 5372 	ld	b, d
   2278 D5            [11] 5373 	push	de
   2279 21 05 00      [10] 5374 	ld	hl, #0x0005
   227C E5            [11] 5375 	push	hl
   227D 21r2Ar23      [10] 5376 	ld	hl, #___str_150
   2280 E5            [11] 5377 	push	hl
   2281 C5            [11] 5378 	push	bc
   2282 CDr00r00      [17] 5379 	call	_memcpy
   2285 F1            [10] 5380 	pop	af
   2286 F1            [10] 5381 	pop	af
   2287 F1            [10] 5382 	pop	af
   2288 DD 6E 04      [19] 5383 	ld	l, 4 (ix)
   228B DD 66 05      [19] 5384 	ld	h, 5 (ix)
   228E E5            [11] 5385 	push	hl
   228F CDr00r00      [17] 5386 	call	_e4vm_utils_add_op_from_string
   2292 F1            [10] 5387 	pop	af
   2293 F1            [10] 5388 	pop	af
                           5389 ;e4vm.c:798: (*v)->hereP = 18;
   2294 DD 4E 04      [19] 5390 	ld	c, 4 (ix)
   2297 DD 46 05      [19] 5391 	ld	b, 5 (ix)
   229A 69            [ 4] 5392 	ld	l, c
   229B 60            [ 4] 5393 	ld	h, b
   229C 5E            [ 7] 5394 	ld	e, (hl)
   229D 23            [ 6] 5395 	inc	hl
   229E 56            [ 7] 5396 	ld	d, (hl)
   229F 21 88 00      [10] 5397 	ld	hl, #0x0088
   22A2 19            [11] 5398 	add	hl, de
   22A3 36 12         [10] 5399 	ld	(hl), #0x12
   22A5 23            [ 6] 5400 	inc	hl
   22A6 36 00         [10] 5401 	ld	(hl), #0x00
                           5402 ;e4vm.c:799: e4vm_utils_stack_ds_push(v, 777);
   22A8 C5            [11] 5403 	push	bc
   22A9 21 09 03      [10] 5404 	ld	hl, #0x0309
   22AC E5            [11] 5405 	push	hl
   22AD C5            [11] 5406 	push	bc
   22AE CDr00r00      [17] 5407 	call	_e4vm_utils_stack_ds_push
   22B1 F1            [10] 5408 	pop	af
   22B2 F1            [10] 5409 	pop	af
   22B3 DD 6E 04      [19] 5410 	ld	l, 4 (ix)
   22B6 DD 66 05      [19] 5411 	ld	h, 5 (ix)
   22B9 E5            [11] 5412 	push	hl
   22BA CDr00r00      [17] 5413 	call	_e4vm_core_do_list
   22BD F1            [10] 5414 	pop	af
   22BE DD 6E 04      [19] 5415 	ld	l, 4 (ix)
   22C1 DD 66 05      [19] 5416 	ld	h, 5 (ix)
   22C4 E5            [11] 5417 	push	hl
   22C5 CDr00r00      [17] 5418 	call	_e4vm_core_do_next
   22C8 F1            [10] 5419 	pop	af
                           5420 ;e4vm.c:802: if ((*v)->words[(*v)->words_count - 1].immediate == 1) {
   22C9 E1            [10] 5421 	pop	hl
   22CA 4E            [ 7] 5422 	ld	c, (hl)
   22CB 23            [ 6] 5423 	inc	hl
   22CC 46            [ 7] 5424 	ld	b, (hl)
   22CD 21 CD 00      [10] 5425 	ld	hl, #0x00cd
   22D0 09            [11] 5426 	add	hl, bc
   22D1 EB            [ 4] 5427 	ex	de, hl
   22D2 69            [ 4] 5428 	ld	l, c
   22D3 60            [ 4] 5429 	ld	h, b
   22D4 01 CD 02      [10] 5430 	ld	bc, #0x02cd
   22D7 09            [11] 5431 	add	hl, bc
   22D8 7E            [ 7] 5432 	ld	a, (hl)
   22D9 23            [ 6] 5433 	inc	hl
   22DA 66            [ 7] 5434 	ld	h, (hl)
   22DB 6F            [ 4] 5435 	ld	l, a
   22DC 2B            [ 6] 5436 	dec	hl
   22DD 29            [11] 5437 	add	hl, hl
   22DE 29            [11] 5438 	add	hl, hl
   22DF 29            [11] 5439 	add	hl, hl
   22E0 29            [11] 5440 	add	hl, hl
   22E1 19            [11] 5441 	add	hl, de
   22E2 11 0E 00      [10] 5442 	ld	de, #0x000e
   22E5 19            [11] 5443 	add	hl, de
   22E6 7E            [ 7] 5444 	ld	a, (hl)
   22E7 3D            [ 4] 5445 	dec	a
   22E8 20 0B         [12] 5446 	jr	NZ,00102$
                           5447 ;e4vm.c:803: Console_WriteStrLn((CHAR*)" - ok", 6);
   22EA 21r2Fr23      [10] 5448 	ld	hl, #___str_151
   22ED CDr00r00      [17] 5449 	call	_Console_WriteStr_C_COMPACT
   22F0 CDr00r00      [17] 5450 	call	_Console_WriteLn_COMPACT
   22F3 18 09         [12] 5451 	jr	00104$
   22F5                    5452 00102$:
                           5453 ;e4vm.c:805: Console_WriteStrLn((CHAR*)" - error", 9);
   22F5 21r35r23      [10] 5454 	ld	hl, #___str_152
   22F8 CDr00r00      [17] 5455 	call	_Console_WriteStr_C_COMPACT
   22FB CDr00r00      [17] 5456 	call	_Console_WriteLn_COMPACT
   22FE                    5457 00104$:
                           5458 ;e4vm.c:807: }
   22FE DD F9         [10] 5459 	ld	sp, ix
   2300 DD E1         [14] 5460 	pop	ix
   2302 C9            [10] 5461 	ret
   2303                    5462 ___str_146:
   2303 54 65 73 74 20 69  5463 	.ascii "Test immediate "
        6D 6D 65 64 69 61
        74 65 20
   2312 00                 5464 	.db 0x00
   2313                    5465 ___str_147:
   2313 68 65 6C 6C 6F     5466 	.ascii "hello"
   2318 00                 5467 	.db 0x00
   2319                    5468 ___str_148:
   2319 64 6F 6C 69 73 74  5469 	.ascii "dolist"
   231F 00                 5470 	.db 0x00
   2320                    5471 ___str_149:
   2320 69 6D 6D 65 64 69  5472 	.ascii "immediate"
        61 74 65
   2329 00                 5473 	.db 0x00
   232A                    5474 ___str_150:
   232A 65 78 69 74        5475 	.ascii "exit"
   232E 00                 5476 	.db 0x00
   232F                    5477 ___str_151:
   232F 20 2D 20 6F 6B     5478 	.ascii " - ok"
   2334 00                 5479 	.db 0x00
   2335                    5480 ___str_152:
   2335 20 2D 20 65 72 72  5481 	.ascii " - error"
        6F 72
   233D 00                 5482 	.db 0x00
                           5483 ;e4vm.c:809: static void e4vm_test_execute1 (e4vm_type_x4thPtr *v)
                           5484 ;	---------------------------------
                           5485 ; Function e4vm_test_execute1
                           5486 ; ---------------------------------
   233E                    5487 _e4vm_test_execute1:
   233E CDr00r00      [17] 5488 	call	___sdcc_enter_ix
   2341 21 CE FF      [10] 5489 	ld	hl, #-50
   2344 39            [11] 5490 	add	hl, sp
   2345 F9            [ 6] 5491 	ld	sp, hl
                           5492 ;e4vm.c:816: Console_WriteStr((CHAR*)"Test execute from core ", 24);
   2346 21r88r24      [10] 5493 	ld	hl, #___str_153
   2349 CDr00r00      [17] 5494 	call	_Console_WriteStr_C_COMPACT
                           5495 ;e4vm.c:817: e4vm_utils_init(v);
   234C DD 6E 04      [19] 5496 	ld	l, 4 (ix)
   234F DD 66 05      [19] 5497 	ld	h, 5 (ix)
   2352 E5            [11] 5498 	push	hl
   2353 CDr00r00      [17] 5499 	call	_e4vm_utils_init
   2356 F1            [10] 5500 	pop	af
                           5501 ;e4vm.c:818: e4vm_core_add_core_words(v);
   2357 DD 6E 04      [19] 5502 	ld	l, 4 (ix)
   235A DD 66 05      [19] 5503 	ld	h, 5 (ix)
   235D E5            [11] 5504 	push	hl
   235E CDr00r00      [17] 5505 	call	_e4vm_core_add_core_words
   2361 F1            [10] 5506 	pop	af
                           5507 ;e4vm.c:819: e4vm_core_ext_add_core_words(v);
   2362 DD 6E 04      [19] 5508 	ld	l, 4 (ix)
   2365 DD 66 05      [19] 5509 	ld	h, 5 (ix)
   2368 E5            [11] 5510 	push	hl
   2369 CDr00r00      [17] 5511 	call	_e4vm_core_ext_add_core_words
   236C F1            [10] 5512 	pop	af
                           5513 ;e4vm.c:820: __MOVE((CHAR*)"hello", _str__51, 6);
   236D 21 00 00      [10] 5514 	ld	hl, #0
   2370 39            [11] 5515 	add	hl, sp
   2371 EB            [ 4] 5516 	ex	de, hl
   2372 4B            [ 4] 5517 	ld	c, e
   2373 42            [ 4] 5518 	ld	b, d
   2374 D5            [11] 5519 	push	de
   2375 21 06 00      [10] 5520 	ld	hl, #0x0006
   2378 E5            [11] 5521 	push	hl
   2379 21rA0r24      [10] 5522 	ld	hl, #___str_154
   237C E5            [11] 5523 	push	hl
   237D C5            [11] 5524 	push	bc
   237E CDr00r00      [17] 5525 	call	_memcpy
   2381 F1            [10] 5526 	pop	af
   2382 F1            [10] 5527 	pop	af
   2383 F1            [10] 5528 	pop	af
   2384 D1            [10] 5529 	pop	de
                           5530 ;e4vm.c:821: e4vm_utils_add_core_word(v, (void*)_str__51, e4vm_do_hello, 0);
   2385 AF            [ 4] 5531 	xor	a, a
   2386 F5            [11] 5532 	push	af
   2387 33            [ 6] 5533 	inc	sp
   2388 21r00r00      [10] 5534 	ld	hl, #_e4vm_do_hello
   238B E5            [11] 5535 	push	hl
   238C D5            [11] 5536 	push	de
   238D DD 6E 04      [19] 5537 	ld	l, 4 (ix)
   2390 DD 66 05      [19] 5538 	ld	h, 5 (ix)
   2393 E5            [11] 5539 	push	hl
   2394 CDr00r00      [17] 5540 	call	_e4vm_utils_add_core_word
   2397 F1            [10] 5541 	pop	af
   2398 F1            [10] 5542 	pop	af
   2399 F1            [10] 5543 	pop	af
   239A 33            [ 6] 5544 	inc	sp
                           5545 ;e4vm.c:822: e4vm_utils_here_to_wp(v);
   239B DD 6E 04      [19] 5546 	ld	l, 4 (ix)
   239E DD 66 05      [19] 5547 	ld	h, 5 (ix)
   23A1 E5            [11] 5548 	push	hl
   23A2 CDr00r00      [17] 5549 	call	_e4vm_utils_here_to_wp
   23A5 F1            [10] 5550 	pop	af
                           5551 ;e4vm.c:823: __MOVE((CHAR*)"dolist", _str__50, 7);
   23A6 21 0A 00      [10] 5552 	ld	hl, #10
   23A9 39            [11] 5553 	add	hl, sp
   23AA EB            [ 4] 5554 	ex	de, hl
   23AB 4B            [ 4] 5555 	ld	c, e
   23AC 42            [ 4] 5556 	ld	b, d
   23AD D5            [11] 5557 	push	de
   23AE 21 07 00      [10] 5558 	ld	hl, #0x0007
   23B1 E5            [11] 5559 	push	hl
   23B2 21rA6r24      [10] 5560 	ld	hl, #___str_155
   23B5 E5            [11] 5561 	push	hl
   23B6 C5            [11] 5562 	push	bc
   23B7 CDr00r00      [17] 5563 	call	_memcpy
   23BA F1            [10] 5564 	pop	af
   23BB F1            [10] 5565 	pop	af
   23BC F1            [10] 5566 	pop	af
   23BD DD 6E 04      [19] 5567 	ld	l, 4 (ix)
   23C0 DD 66 05      [19] 5568 	ld	h, 5 (ix)
   23C3 E5            [11] 5569 	push	hl
   23C4 CDr00r00      [17] 5570 	call	_e4vm_utils_add_op_from_string
   23C7 F1            [10] 5571 	pop	af
   23C8 F1            [10] 5572 	pop	af
                           5573 ;e4vm.c:825: __MOVE((CHAR*)"execute", _str__49, 8);
   23C9 21 14 00      [10] 5574 	ld	hl, #20
   23CC 39            [11] 5575 	add	hl, sp
   23CD EB            [ 4] 5576 	ex	de, hl
   23CE 4B            [ 4] 5577 	ld	c, e
   23CF 42            [ 4] 5578 	ld	b, d
   23D0 D5            [11] 5579 	push	de
   23D1 21 08 00      [10] 5580 	ld	hl, #0x0008
   23D4 E5            [11] 5581 	push	hl
   23D5 21rADr24      [10] 5582 	ld	hl, #___str_156
   23D8 E5            [11] 5583 	push	hl
   23D9 C5            [11] 5584 	push	bc
   23DA CDr00r00      [17] 5585 	call	_memcpy
   23DD F1            [10] 5586 	pop	af
   23DE F1            [10] 5587 	pop	af
   23DF F1            [10] 5588 	pop	af
   23E0 DD 6E 04      [19] 5589 	ld	l, 4 (ix)
   23E3 DD 66 05      [19] 5590 	ld	h, 5 (ix)
   23E6 E5            [11] 5591 	push	hl
   23E7 CDr00r00      [17] 5592 	call	_e4vm_utils_add_op_from_string
   23EA F1            [10] 5593 	pop	af
   23EB F1            [10] 5594 	pop	af
                           5595 ;e4vm.c:827: __MOVE((CHAR*)"exit", _str__48, 5);
   23EC 21 1E 00      [10] 5596 	ld	hl, #30
   23EF 39            [11] 5597 	add	hl, sp
   23F0 EB            [ 4] 5598 	ex	de, hl
   23F1 4B            [ 4] 5599 	ld	c, e
   23F2 42            [ 4] 5600 	ld	b, d
   23F3 D5            [11] 5601 	push	de
   23F4 21 05 00      [10] 5602 	ld	hl, #0x0005
   23F7 E5            [11] 5603 	push	hl
   23F8 21rB5r24      [10] 5604 	ld	hl, #___str_157
   23FB E5            [11] 5605 	push	hl
   23FC C5            [11] 5606 	push	bc
   23FD CDr00r00      [17] 5607 	call	_memcpy
   2400 F1            [10] 5608 	pop	af
   2401 F1            [10] 5609 	pop	af
   2402 F1            [10] 5610 	pop	af
   2403 DD 6E 04      [19] 5611 	ld	l, 4 (ix)
   2406 DD 66 05      [19] 5612 	ld	h, 5 (ix)
   2409 E5            [11] 5613 	push	hl
   240A CDr00r00      [17] 5614 	call	_e4vm_utils_add_op_from_string
   240D F1            [10] 5615 	pop	af
   240E F1            [10] 5616 	pop	af
                           5617 ;e4vm.c:829: e4vm_utils_stack_ds_push(v, (__MOVE((CHAR*)"hello", _str__47, 6), 
   240F 21 28 00      [10] 5618 	ld	hl, #40
   2412 39            [11] 5619 	add	hl, sp
   2413 EB            [ 4] 5620 	ex	de, hl
   2414 4B            [ 4] 5621 	ld	c, e
   2415 42            [ 4] 5622 	ld	b, d
   2416 D5            [11] 5623 	push	de
   2417 21 06 00      [10] 5624 	ld	hl, #0x0006
   241A E5            [11] 5625 	push	hl
   241B 21rA0r24      [10] 5626 	ld	hl, #___str_154
   241E E5            [11] 5627 	push	hl
   241F C5            [11] 5628 	push	bc
   2420 CDr00r00      [17] 5629 	call	_memcpy
   2423 F1            [10] 5630 	pop	af
   2424 F1            [10] 5631 	pop	af
   2425 21r0Fr03      [10] 5632 	ld	hl, #_e4vm_vm
   2428 E3            [19] 5633 	ex	(sp),hl
   2429 CDr00r00      [17] 5634 	call	_e4vm_utils_look_up_word_address
   242C F1            [10] 5635 	pop	af
                           5636 ;e4vm.c:829: e4vm_utils_stack_ds_push(v, (__MOVE((CHAR*)"hello", _str__47, 6), 
   242D E3            [19] 5637 	ex	(sp),hl
   242E DD 6E 04      [19] 5638 	ld	l, 4 (ix)
   2431 DD 66 05      [19] 5639 	ld	h, 5 (ix)
   2434 E5            [11] 5640 	push	hl
   2435 CDr00r00      [17] 5641 	call	_e4vm_utils_stack_ds_push
   2438 F1            [10] 5642 	pop	af
   2439 F1            [10] 5643 	pop	af
                           5644 ;e4vm.c:831: (*v)->mem[30] = 0;
   243A DD 4E 04      [19] 5645 	ld	c, 4 (ix)
   243D DD 46 05      [19] 5646 	ld	b, 5 (ix)
   2440 69            [ 4] 5647 	ld	l, c
   2441 60            [ 4] 5648 	ld	h, b
   2442 5E            [ 7] 5649 	ld	e, (hl)
   2443 23            [ 6] 5650 	inc	hl
   2444 56            [ 7] 5651 	ld	d, (hl)
   2445 21 C6 00      [10] 5652 	ld	hl, #0x00c6
   2448 19            [11] 5653 	add	hl, de
   2449 AF            [ 4] 5654 	xor	a, a
   244A 77            [ 7] 5655 	ld	(hl), a
   244B 23            [ 6] 5656 	inc	hl
   244C 77            [ 7] 5657 	ld	(hl), a
                           5658 ;e4vm.c:832: e4vm_core_do_list(v);
   244D C5            [11] 5659 	push	bc
   244E C5            [11] 5660 	push	bc
   244F CDr00r00      [17] 5661 	call	_e4vm_core_do_list
   2452 F1            [10] 5662 	pop	af
   2453 DD 6E 04      [19] 5663 	ld	l, 4 (ix)
   2456 DD 66 05      [19] 5664 	ld	h, 5 (ix)
   2459 E5            [11] 5665 	push	hl
   245A CDr00r00      [17] 5666 	call	_e4vm_core_do_next
   245D F1            [10] 5667 	pop	af
                           5668 ;e4vm.c:834: if ((*v)->mem[30] == 1) {
   245E E1            [10] 5669 	pop	hl
   245F 4E            [ 7] 5670 	ld	c, (hl)
   2460 23            [ 6] 5671 	inc	hl
   2461 66            [ 7] 5672 	ld	h, (hl)
   2462 69            [ 4] 5673 	ld	l, c
   2463 11 C6 00      [10] 5674 	ld	de, #0x00c6
   2466 19            [11] 5675 	add	hl, de
   2467 4E            [ 7] 5676 	ld	c, (hl)
   2468 23            [ 6] 5677 	inc	hl
   2469 46            [ 7] 5678 	ld	b, (hl)
   246A 79            [ 4] 5679 	ld	a, c
   246B 3D            [ 4] 5680 	dec	a
   246C B0            [ 4] 5681 	or	a, b
   246D 20 0B         [12] 5682 	jr	NZ,00102$
                           5683 ;e4vm.c:835: Console_WriteStrLn((CHAR*)" - ok", 6);
   246F 21rBAr24      [10] 5684 	ld	hl, #___str_158
   2472 CDr00r00      [17] 5685 	call	_Console_WriteStr_C_COMPACT
   2475 CDr00r00      [17] 5686 	call	_Console_WriteLn_COMPACT
   2478 18 09         [12] 5687 	jr	00104$
   247A                    5688 00102$:
                           5689 ;e4vm.c:837: Console_WriteStrLn((CHAR*)" - error", 9);
   247A 21rC0r24      [10] 5690 	ld	hl, #___str_159
   247D CDr00r00      [17] 5691 	call	_Console_WriteStr_C_COMPACT
   2480 CDr00r00      [17] 5692 	call	_Console_WriteLn_COMPACT
   2483                    5693 00104$:
                           5694 ;e4vm.c:839: }
   2483 DD F9         [10] 5695 	ld	sp, ix
   2485 DD E1         [14] 5696 	pop	ix
   2487 C9            [10] 5697 	ret
   2488                    5698 ___str_153:
   2488 54 65 73 74 20 65  5699 	.ascii "Test execute from core "
        78 65 63 75 74 65
        20 66 72 6F 6D 20
        63 6F 72 65 20
   249F 00                 5700 	.db 0x00
   24A0                    5701 ___str_154:
   24A0 68 65 6C 6C 6F     5702 	.ascii "hello"
   24A5 00                 5703 	.db 0x00
   24A6                    5704 ___str_155:
   24A6 64 6F 6C 69 73 74  5705 	.ascii "dolist"
   24AC 00                 5706 	.db 0x00
   24AD                    5707 ___str_156:
   24AD 65 78 65 63 75 74  5708 	.ascii "execute"
        65
   24B4 00                 5709 	.db 0x00
   24B5                    5710 ___str_157:
   24B5 65 78 69 74        5711 	.ascii "exit"
   24B9 00                 5712 	.db 0x00
   24BA                    5713 ___str_158:
   24BA 20 2D 20 6F 6B     5714 	.ascii " - ok"
   24BF 00                 5715 	.db 0x00
   24C0                    5716 ___str_159:
   24C0 20 2D 20 65 72 72  5717 	.ascii " - error"
        6F 72
   24C8 00                 5718 	.db 0x00
                           5719 ;e4vm.c:842: int main (int argc, char **argv)
                           5720 ;	---------------------------------
                           5721 ; Function main
                           5722 ; ---------------------------------
   24C9                    5723 _main::
                           5724 ;e4vm.c:847: __IMPORT(e4vm_boolean__init);
   24C9 CDr00r00      [17] 5725 	call	_e4vm_boolean__init
                           5726 ;e4vm.c:848: __IMPORT(e4vm_core__init);
   24CC CDr00r00      [17] 5727 	call	_e4vm_core__init
                           5728 ;e4vm.c:849: __IMPORT(e4vm_core_ext__init);
   24CF CDr00r00      [17] 5729 	call	_e4vm_core_ext__init
                           5730 ;e4vm.c:850: __IMPORT(e4vm_math__init);
   24D2 CDr00r00      [17] 5731 	call	_e4vm_math__init
                           5732 ;e4vm.c:851: __IMPORT(e4vm_stack__init);
   24D5 CDr00r00      [17] 5733 	call	_e4vm_stack__init
                           5734 ;e4vm.c:852: __IMPORT(e4vm_type__init);
   24D8 CDr00r00      [17] 5735 	call	_e4vm_type__init
                           5736 ;e4vm.c:853: __IMPORT(e4vm_utils__init);
   24DB CDr00r00      [17] 5737 	call	_e4vm_utils__init
                           5738 ;e4vm.c:856: Basic_Init();
   24DE FD CB 01 A6   [23] 5739 	res	4,1(iy) 
   24E2 CD 42 16      [17] 5740 	call 0x1642 
                           5741 ;e4vm.c:857: Console_Clear(7);
   24E5 2E 07         [ 7] 5742 	ld	l, #0x07
   24E7 CDr00r00      [17] 5743 	call	_Console_Clear_COMPACT
                           5744 ;e4vm.c:858: Console_SetColors(56);
   24EA 21r00r00      [10] 5745 	ld	hl, #_Console_attrib
   24ED 36 38         [10] 5746 	ld	(hl), #0x38
                           5747 ;e4vm.c:859: e4vm_vm = (e4vm_type_x4thPtr)((SYSTEM_ADRINT)&e4vm_vm_static);
   24EF 21r00r00      [10] 5748 	ld	hl, #_e4vm_vm_static
   24F2 22r0Fr03      [16] 5749 	ld	(_e4vm_vm), hl
                           5750 ;e4vm.c:860: e4vm_test_immediate(&e4vm_vm);
   24F5 21r0Fr03      [10] 5751 	ld	hl, #_e4vm_vm
   24F8 E5            [11] 5752 	push	hl
   24F9 CDrC3r21      [17] 5753 	call	_e4vm_test_immediate
                           5754 ;e4vm.c:861: e4vm_test_execute1(&e4vm_vm);
   24FC 21r0Fr03      [10] 5755 	ld	hl, #_e4vm_vm
   24FF E3            [19] 5756 	ex	(sp),hl
   2500 CDr3Er23      [17] 5757 	call	_e4vm_test_execute1
   2503 F1            [10] 5758 	pop	af
                           5759 ;e4vm.c:862: Basic_PAUSE(0);
   2504 21 00 00      [10] 5760 	ld	hl, #0x0000
   2507 CDr00r00      [17] 5761 	call	_Basic_PAUSE_EI
                           5762 ;e4vm.c:863: Basic_Quit();
                           5763 ;e4vm.c:864: __FINI;
                           5764 ;e4vm.c:865: }
   250A C3r00r00      [10] 5765 	jp  _Basic_Quit_IM1
                           5766 	.area _CODE
                           5767 	.area _INITIALIZER
                           5768 	.area _CABS (ABS)
