;--------------------------------------------------------
; File Created by SDCC : free open source ANSI-C Compiler
; Version 3.9.3 #11378 (MINGW32)
;--------------------------------------------------------
	.module e4vm
	.optsdcc -mz80
	
;--------------------------------------------------------
; Public variables in this module
;--------------------------------------------------------
	.globl _main
	.globl _e4vm_utils__init
	.globl _e4vm_utils_init
	.globl _e4vm_core__init
	.globl _e4vm_core_do_nop
	.globl _e4vm_core_do_next
	.globl _e4vm_core_do_list
	.globl _e4vm_core_do_exit
	.globl _Basic_Quit_IM1
	.globl _Basic_PAUSE_EI
	.globl _Console_Clear_COMPACT
	.globl _Console_WriteStr_C_COMPACT
	.globl _Console_WriteLn_COMPACT
;--------------------------------------------------------
; special function registers
;--------------------------------------------------------
;--------------------------------------------------------
; ram data
;--------------------------------------------------------
	.area _DATA
_e4vm_vm_static:
	.ds 269
_e4vm_vm:
	.ds 2
;--------------------------------------------------------
; ram data
;--------------------------------------------------------
	.area _INITIALIZED
;--------------------------------------------------------
; absolute external ram data
;--------------------------------------------------------
	.area _DABS (ABS)
;--------------------------------------------------------
; global & static initialisations
;--------------------------------------------------------
	.area _HOME
	.area _GSINIT
	.area _GSFINAL
	.area _GSINIT
;--------------------------------------------------------
; Home
;--------------------------------------------------------
	.area _HOME
	.area _HOME
;--------------------------------------------------------
; code
;--------------------------------------------------------
	.area _CODE
;e4vm.c:27: static void e4vm_stack_ds_push (SHORTINT x)
;	---------------------------------
; Function e4vm_stack_ds_push
; ---------------------------------
_e4vm_stack_ds_push:
	call	___sdcc_enter_ix
;e4vm.c:29: e4vm_vm->ds[e4vm_vm->ds_p] = x;
	ld	bc, (_e4vm_vm)
	ld	hl, #0x0044
	add	hl, bc
	ex	de, hl
	ld	l, c
	ld	h, b
	ld	bc, #0x0086
	add	hl, bc
	ld	a, (hl)
	inc	hl
	ld	h, (hl)
	ld	l, a
	add	hl, hl
	add	hl, de
	ex	de, hl
	ld	a, 4 (ix)
	ld	(de), a
	inc	de
	ld	a, 5 (ix)
	ld	(de), a
	ld	bc, (_e4vm_vm)
	ld	hl, #0x0086
	add	hl, bc
;e4vm.c:30: e4vm_vm->ds_p = e4vm_vm->ds_p + 1;
	ld	c, (hl)
	inc	hl
	ld	b, (hl)
	dec	hl
	inc	bc
	ld	a, b
	ld	(hl), c
	inc	hl
	ld	(hl), a
;e4vm.c:31: }
	pop	ix
	ret
;e4vm.c:33: static void e4vm_stack_rs_push (SHORTINT x)
;	---------------------------------
; Function e4vm_stack_rs_push
; ---------------------------------
_e4vm_stack_rs_push:
	call	___sdcc_enter_ix
;e4vm.c:35: e4vm_vm->rs[e4vm_vm->rs_p] = x;
	ld	bc, (_e4vm_vm)
	ld	hl, #0x0004
	add	hl, bc
	ex	de, hl
	ld	l, c
	ld	h, b
	ld	bc, #0x0084
	add	hl, bc
	ld	a, (hl)
	inc	hl
	ld	h, (hl)
	ld	l, a
	add	hl, hl
	add	hl, de
	ex	de, hl
	ld	a, 4 (ix)
	ld	(de), a
	inc	de
	ld	a, 5 (ix)
	ld	(de), a
	ld	bc, (_e4vm_vm)
	ld	hl, #0x0084
	add	hl, bc
;e4vm.c:36: e4vm_vm->rs_p = e4vm_vm->rs_p + 1;
	ld	c, (hl)
	inc	hl
	ld	b, (hl)
	dec	hl
	inc	bc
	ld	a, b
	ld	(hl), c
	inc	hl
	ld	(hl), a
;e4vm.c:37: }
	pop	ix
	ret
;e4vm.c:39: static void e4vm_do_lit (e4vm_type_x4thPtr *v)
;	---------------------------------
; Function e4vm_do_lit
; ---------------------------------
_e4vm_do_lit:
	call	___sdcc_enter_ix
;e4vm.c:41: (*v)->ip = (*v)->ip + 1;
	ld	c, 4 (ix)
	ld	b, 5 (ix)
	ld	l, c
	ld	h, b
	ld	a, (hl)
	inc	hl
	ld	h, (hl)
	ld	l, a
	ld	e, (hl)
	inc	hl
	ld	d, (hl)
	dec	hl
	inc	de
	ld	a, d
	ld	(hl), e
	inc	hl
	ld	(hl), a
;e4vm.c:42: e4vm_stack_ds_push((*v)->mem[(*v)->ip]);
	ld	l, c
	ld	h, b
	ld	c, (hl)
	inc	hl
	ld	b, (hl)
	ld	hl, #0x008a
	add	hl, bc
	ex	de, hl
	ld	l, c
	ld	h, b
	ld	a, (hl)
	inc	hl
	ld	h, (hl)
	ld	l, a
	add	hl, hl
	add	hl, de
	ld	c, (hl)
	inc	hl
	ld	b, (hl)
	push	bc
	call	_e4vm_stack_ds_push
	pop	af
;e4vm.c:43: }
	pop	ix
	ret
;e4vm.c:45: static void e4vm_do_hello (e4vm_type_x4thPtr *v)
;	---------------------------------
; Function e4vm_do_hello
; ---------------------------------
_e4vm_do_hello:
	call	___sdcc_enter_ix
;e4vm.c:47: Console_WriteStrLn((CHAR*)"hello!", 7);
	ld	hl, #___str_0
	call	_Console_WriteStr_C_COMPACT
;e4vm.c:48: }
	pop	ix
	jp	_Console_WriteLn_COMPACT
___str_0:
	.ascii "hello!"
	.db 0x00
;e4vm.c:50: static void e4vm_test1 (e4vm_type_x4thPtr *v)
;	---------------------------------
; Function e4vm_test1
; ---------------------------------
_e4vm_test1:
	call	___sdcc_enter_ix
;e4vm.c:52: e4vm_utils_init(v);
	ld	l, 4 (ix)
	ld	h, 5 (ix)
	push	hl
	call	_e4vm_utils_init
	pop	af
;e4vm.c:53: (*v)->core[0] = e4vm_core_do_nop;
	ld	c, 4 (ix)
	ld	b, 5 (ix)
	ld	l, c
	ld	h, b
	ld	e, (hl)
	inc	hl
	ld	d, (hl)
	ld	hl, #0x00cd
	add	hl, de
	ex	de, hl
	ld	a, #<(_e4vm_core_do_nop)
	ld	(de), a
	inc	de
	ld	a, #>(_e4vm_core_do_nop)
	ld	(de), a
;e4vm.c:54: (*v)->core[1] = e4vm_core_do_next;
	ld	l, c
	ld	h, b
	ld	e, (hl)
	inc	hl
	ld	d, (hl)
	ld	hl, #0x00cf
	add	hl, de
	ex	de, hl
	ld	a, #<(_e4vm_core_do_next)
	ld	(de), a
	inc	de
	ld	a, #>(_e4vm_core_do_next)
	ld	(de), a
;e4vm.c:55: (*v)->core[2] = e4vm_core_do_list;
	ld	l, c
	ld	h, b
	ld	e, (hl)
	inc	hl
	ld	d, (hl)
	ld	hl, #0x00d1
	add	hl, de
	ex	de, hl
	ld	a, #<(_e4vm_core_do_list)
	ld	(de), a
	inc	de
	ld	a, #>(_e4vm_core_do_list)
	ld	(de), a
;e4vm.c:56: (*v)->core[3] = e4vm_core_do_exit;
	ld	l, c
	ld	h, b
	ld	e, (hl)
	inc	hl
	ld	d, (hl)
	ld	hl, #0x00d3
	add	hl, de
	ex	de, hl
	ld	a, #<(_e4vm_core_do_exit)
	ld	(de), a
	inc	de
	ld	a, #>(_e4vm_core_do_exit)
	ld	(de), a
;e4vm.c:57: (*v)->core[4] = e4vm_do_hello;
	ld	l, c
	ld	h, b
	ld	e, (hl)
	inc	hl
	ld	d, (hl)
	ld	hl, #0x00d5
	add	hl, de
	ex	de, hl
	ld	a, #<(_e4vm_do_hello)
	ld	(de), a
	inc	de
	ld	a, #>(_e4vm_do_hello)
	ld	(de), a
;e4vm.c:58: (*v)->mem[0] = 0;
	ld	l, c
	ld	h, b
	ld	e, (hl)
	inc	hl
	ld	d, (hl)
	ld	hl, #0x008a
	add	hl, de
	xor	a, a
	ld	(hl), a
	inc	hl
	ld	(hl), a
;e4vm.c:59: (*v)->mem[1] = 1;
	ld	l, c
	ld	h, b
	ld	e, (hl)
	inc	hl
	ld	d, (hl)
	ld	hl, #0x008c
	add	hl, de
	ld	(hl), #0x01
	inc	hl
	ld	(hl), #0x00
;e4vm.c:60: (*v)->mem[2] = 2;
	ld	l, c
	ld	h, b
	ld	e, (hl)
	inc	hl
	ld	d, (hl)
	ld	hl, #0x008e
	add	hl, de
	ld	(hl), #0x02
	inc	hl
	ld	(hl), #0x00
;e4vm.c:61: (*v)->mem[3] = 3;
	ld	l, c
	ld	h, b
	ld	e, (hl)
	inc	hl
	ld	d, (hl)
	ld	hl, #0x0090
	add	hl, de
	ld	(hl), #0x03
	inc	hl
	ld	(hl), #0x00
;e4vm.c:62: (*v)->mem[4] = 4;
	ld	l, c
	ld	h, b
	ld	e, (hl)
	inc	hl
	ld	d, (hl)
	ld	hl, #0x0092
	add	hl, de
	ld	(hl), #0x04
	inc	hl
	ld	(hl), #0x00
;e4vm.c:63: (*v)->wp = 4;
	ld	l, c
	ld	h, b
	ld	e, (hl)
	inc	hl
	ld	d, (hl)
	inc	de
	inc	de
	ld	h, d
	ld	l, e
	ld	(hl), #0x04
	inc	hl
	ld	(hl), #0x00
;e4vm.c:64: (*v)->mem[5] = 2;
	ld	l, c
	ld	h, b
	ld	e, (hl)
	inc	hl
	ld	d, (hl)
	ld	hl, #0x0094
	add	hl, de
	ld	(hl), #0x02
	inc	hl
	ld	(hl), #0x00
;e4vm.c:65: (*v)->mem[6] = 0;
	ld	l, c
	ld	h, b
	ld	e, (hl)
	inc	hl
	ld	d, (hl)
	ld	hl, #0x0096
	add	hl, de
	xor	a, a
	ld	(hl), a
	inc	hl
	ld	(hl), a
;e4vm.c:66: (*v)->mem[7] = 4;
	ld	l, c
	ld	h, b
	ld	e, (hl)
	inc	hl
	ld	d, (hl)
	ld	hl, #0x0098
	add	hl, de
	ld	(hl), #0x04
	inc	hl
	ld	(hl), #0x00
;e4vm.c:67: (*v)->mem[8] = 0;
	ld	l, c
	ld	h, b
	ld	e, (hl)
	inc	hl
	ld	d, (hl)
	ld	hl, #0x009a
	add	hl, de
	xor	a, a
	ld	(hl), a
	inc	hl
	ld	(hl), a
;e4vm.c:68: (*v)->mem[9] = 3;
	ld	l, c
	ld	h, b
	ld	e, (hl)
	inc	hl
	ld	d, (hl)
	ld	hl, #0x009c
	add	hl, de
	ld	(hl), #0x03
	inc	hl
	ld	(hl), #0x00
;e4vm.c:69: e4vm_core_do_list(v);
	push	bc
	call	_e4vm_core_do_list
	pop	af
;e4vm.c:70: e4vm_core_do_next(v);
	ld	l, 4 (ix)
	ld	h, 5 (ix)
	push	hl
	call	_e4vm_core_do_next
	pop	af
;e4vm.c:71: }
	pop	ix
	ret
;e4vm.c:73: static void e4vm_test2 (e4vm_type_x4thPtr *v)
;	---------------------------------
; Function e4vm_test2
; ---------------------------------
_e4vm_test2:
	call	___sdcc_enter_ix
;e4vm.c:75: e4vm_utils_init(v);
	ld	l, 4 (ix)
	ld	h, 5 (ix)
	push	hl
	call	_e4vm_utils_init
	pop	af
;e4vm.c:76: (*v)->core[0] = e4vm_core_do_nop;
	ld	c, 4 (ix)
	ld	b, 5 (ix)
	ld	l, c
	ld	h, b
	ld	e, (hl)
	inc	hl
	ld	d, (hl)
	ld	hl, #0x00cd
	add	hl, de
	ex	de, hl
	ld	a, #<(_e4vm_core_do_nop)
	ld	(de), a
	inc	de
	ld	a, #>(_e4vm_core_do_nop)
	ld	(de), a
;e4vm.c:77: (*v)->core[1] = e4vm_core_do_next;
	ld	l, c
	ld	h, b
	ld	e, (hl)
	inc	hl
	ld	d, (hl)
	ld	hl, #0x00cf
	add	hl, de
	ex	de, hl
	ld	a, #<(_e4vm_core_do_next)
	ld	(de), a
	inc	de
	ld	a, #>(_e4vm_core_do_next)
	ld	(de), a
;e4vm.c:78: (*v)->core[2] = e4vm_core_do_list;
	ld	l, c
	ld	h, b
	ld	e, (hl)
	inc	hl
	ld	d, (hl)
	ld	hl, #0x00d1
	add	hl, de
	ex	de, hl
	ld	a, #<(_e4vm_core_do_list)
	ld	(de), a
	inc	de
	ld	a, #>(_e4vm_core_do_list)
	ld	(de), a
;e4vm.c:79: (*v)->core[3] = e4vm_core_do_exit;
	ld	l, c
	ld	h, b
	ld	e, (hl)
	inc	hl
	ld	d, (hl)
	ld	hl, #0x00d3
	add	hl, de
	ex	de, hl
	ld	a, #<(_e4vm_core_do_exit)
	ld	(de), a
	inc	de
	ld	a, #>(_e4vm_core_do_exit)
	ld	(de), a
;e4vm.c:80: (*v)->core[4] = e4vm_do_hello;
	ld	l, c
	ld	h, b
	ld	e, (hl)
	inc	hl
	ld	d, (hl)
	ld	hl, #0x00d5
	add	hl, de
	ex	de, hl
	ld	a, #<(_e4vm_do_hello)
	ld	(de), a
	inc	de
	ld	a, #>(_e4vm_do_hello)
	ld	(de), a
;e4vm.c:81: (*v)->mem[0] = 0;
	ld	l, c
	ld	h, b
	ld	e, (hl)
	inc	hl
	ld	d, (hl)
	ld	hl, #0x008a
	add	hl, de
	xor	a, a
	ld	(hl), a
	inc	hl
	ld	(hl), a
;e4vm.c:82: (*v)->mem[1] = 1;
	ld	l, c
	ld	h, b
	ld	e, (hl)
	inc	hl
	ld	d, (hl)
	ld	hl, #0x008c
	add	hl, de
	ld	(hl), #0x01
	inc	hl
	ld	(hl), #0x00
;e4vm.c:83: (*v)->mem[2] = 2;
	ld	l, c
	ld	h, b
	ld	e, (hl)
	inc	hl
	ld	d, (hl)
	ld	hl, #0x008e
	add	hl, de
	ld	(hl), #0x02
	inc	hl
	ld	(hl), #0x00
;e4vm.c:84: (*v)->mem[3] = 3;
	ld	l, c
	ld	h, b
	ld	e, (hl)
	inc	hl
	ld	d, (hl)
	ld	hl, #0x0090
	add	hl, de
	ld	(hl), #0x03
	inc	hl
	ld	(hl), #0x00
;e4vm.c:85: (*v)->mem[4] = 4;
	ld	l, c
	ld	h, b
	ld	e, (hl)
	inc	hl
	ld	d, (hl)
	ld	hl, #0x0092
	add	hl, de
	ld	(hl), #0x04
	inc	hl
	ld	(hl), #0x00
;e4vm.c:86: (*v)->wp = 7;
	ld	l, c
	ld	h, b
	ld	e, (hl)
	inc	hl
	ld	d, (hl)
	inc	de
	inc	de
	ld	h, d
	ld	l, e
	ld	(hl), #0x07
	inc	hl
	ld	(hl), #0x00
;e4vm.c:87: (*v)->mem[5] = 2;
	ld	l, c
	ld	h, b
	ld	e, (hl)
	inc	hl
	ld	d, (hl)
	ld	hl, #0x0094
	add	hl, de
	ld	(hl), #0x02
	inc	hl
	ld	(hl), #0x00
;e4vm.c:88: (*v)->mem[6] = 4;
	ld	l, c
	ld	h, b
	ld	e, (hl)
	inc	hl
	ld	d, (hl)
	ld	hl, #0x0096
	add	hl, de
	ld	(hl), #0x04
	inc	hl
	ld	(hl), #0x00
;e4vm.c:89: (*v)->mem[7] = 3;
	ld	l, c
	ld	h, b
	ld	e, (hl)
	inc	hl
	ld	d, (hl)
	ld	hl, #0x0098
	add	hl, de
	ld	(hl), #0x03
	inc	hl
	ld	(hl), #0x00
;e4vm.c:90: (*v)->mem[8] = 2;
	ld	l, c
	ld	h, b
	ld	e, (hl)
	inc	hl
	ld	d, (hl)
	ld	hl, #0x009a
	add	hl, de
	ld	(hl), #0x02
	inc	hl
	ld	(hl), #0x00
;e4vm.c:91: (*v)->mem[9] = 0;
	ld	l, c
	ld	h, b
	ld	e, (hl)
	inc	hl
	ld	d, (hl)
	ld	hl, #0x009c
	add	hl, de
	xor	a, a
	ld	(hl), a
	inc	hl
	ld	(hl), a
;e4vm.c:92: (*v)->mem[10] = 0;
	ld	l, c
	ld	h, b
	ld	e, (hl)
	inc	hl
	ld	d, (hl)
	ld	hl, #0x009e
	add	hl, de
	xor	a, a
	ld	(hl), a
	inc	hl
	ld	(hl), a
;e4vm.c:93: (*v)->mem[11] = 4;
	ld	l, c
	ld	h, b
	ld	e, (hl)
	inc	hl
	ld	d, (hl)
	ld	hl, #0x00a0
	add	hl, de
	ld	(hl), #0x04
	inc	hl
	ld	(hl), #0x00
;e4vm.c:94: (*v)->mem[12] = 0;
	ld	l, c
	ld	h, b
	ld	e, (hl)
	inc	hl
	ld	d, (hl)
	ld	hl, #0x00a2
	add	hl, de
	xor	a, a
	ld	(hl), a
	inc	hl
	ld	(hl), a
;e4vm.c:95: (*v)->mem[13] = 0;
	ld	l, c
	ld	h, b
	ld	e, (hl)
	inc	hl
	ld	d, (hl)
	ld	hl, #0x00a4
	add	hl, de
	xor	a, a
	ld	(hl), a
	inc	hl
	ld	(hl), a
;e4vm.c:96: (*v)->mem[14] = 3;
	ld	l, c
	ld	h, b
	ld	e, (hl)
	inc	hl
	ld	d, (hl)
	ld	hl, #0x00a6
	add	hl, de
	ld	(hl), #0x03
	inc	hl
	ld	(hl), #0x00
;e4vm.c:97: e4vm_core_do_list(v);
	push	bc
	call	_e4vm_core_do_list
	pop	af
;e4vm.c:98: e4vm_core_do_next(v);
	ld	l, 4 (ix)
	ld	h, 5 (ix)
	push	hl
	call	_e4vm_core_do_next
	pop	af
;e4vm.c:99: }
	pop	ix
	ret
;e4vm.c:101: static void e4vm_test_dolit (e4vm_type_x4thPtr *v)
;	---------------------------------
; Function e4vm_test_dolit
; ---------------------------------
_e4vm_test_dolit:
	call	___sdcc_enter_ix
;e4vm.c:103: Console_WriteStr((CHAR*)"dolit ", 7);
	ld	hl, #___str_1
	call	_Console_WriteStr_C_COMPACT
;e4vm.c:104: e4vm_utils_init(v);
	ld	l, 4 (ix)
	ld	h, 5 (ix)
	push	hl
	call	_e4vm_utils_init
	pop	af
;e4vm.c:105: (*v)->core[0] = e4vm_core_do_nop;
	ld	c, 4 (ix)
	ld	b, 5 (ix)
	ld	l, c
	ld	h, b
	ld	e, (hl)
	inc	hl
	ld	d, (hl)
	ld	hl, #0x00cd
	add	hl, de
	ex	de, hl
	ld	a, #<(_e4vm_core_do_nop)
	ld	(de), a
	inc	de
	ld	a, #>(_e4vm_core_do_nop)
	ld	(de), a
;e4vm.c:106: (*v)->core[1] = e4vm_core_do_next;
	ld	l, c
	ld	h, b
	ld	e, (hl)
	inc	hl
	ld	d, (hl)
	ld	hl, #0x00cf
	add	hl, de
	ex	de, hl
	ld	a, #<(_e4vm_core_do_next)
	ld	(de), a
	inc	de
	ld	a, #>(_e4vm_core_do_next)
	ld	(de), a
;e4vm.c:107: (*v)->core[2] = e4vm_core_do_list;
	ld	l, c
	ld	h, b
	ld	e, (hl)
	inc	hl
	ld	d, (hl)
	ld	hl, #0x00d1
	add	hl, de
	ex	de, hl
	ld	a, #<(_e4vm_core_do_list)
	ld	(de), a
	inc	de
	ld	a, #>(_e4vm_core_do_list)
	ld	(de), a
;e4vm.c:108: (*v)->core[3] = e4vm_core_do_exit;
	ld	l, c
	ld	h, b
	ld	e, (hl)
	inc	hl
	ld	d, (hl)
	ld	hl, #0x00d3
	add	hl, de
	ex	de, hl
	ld	a, #<(_e4vm_core_do_exit)
	ld	(de), a
	inc	de
	ld	a, #>(_e4vm_core_do_exit)
	ld	(de), a
;e4vm.c:109: (*v)->core[4] = e4vm_do_hello;
	ld	l, c
	ld	h, b
	ld	e, (hl)
	inc	hl
	ld	d, (hl)
	ld	hl, #0x00d5
	add	hl, de
	ex	de, hl
	ld	a, #<(_e4vm_do_hello)
	ld	(de), a
	inc	de
	ld	a, #>(_e4vm_do_hello)
	ld	(de), a
;e4vm.c:110: (*v)->core[5] = e4vm_do_lit;
	ld	l, c
	ld	h, b
	ld	e, (hl)
	inc	hl
	ld	d, (hl)
	ld	hl, #0x00d7
	add	hl, de
	ex	de, hl
	ld	a, #<(_e4vm_do_lit)
	ld	(de), a
	inc	de
	ld	a, #>(_e4vm_do_lit)
	ld	(de), a
;e4vm.c:111: (*v)->mem[0] = 0;
	ld	l, c
	ld	h, b
	ld	e, (hl)
	inc	hl
	ld	d, (hl)
	ld	hl, #0x008a
	add	hl, de
	xor	a, a
	ld	(hl), a
	inc	hl
	ld	(hl), a
;e4vm.c:112: (*v)->mem[1] = 1;
	ld	l, c
	ld	h, b
	ld	e, (hl)
	inc	hl
	ld	d, (hl)
	ld	hl, #0x008c
	add	hl, de
	ld	(hl), #0x01
	inc	hl
	ld	(hl), #0x00
;e4vm.c:113: (*v)->mem[2] = 2;
	ld	l, c
	ld	h, b
	ld	e, (hl)
	inc	hl
	ld	d, (hl)
	ld	hl, #0x008e
	add	hl, de
	ld	(hl), #0x02
	inc	hl
	ld	(hl), #0x00
;e4vm.c:114: (*v)->mem[3] = 3;
	ld	l, c
	ld	h, b
	ld	e, (hl)
	inc	hl
	ld	d, (hl)
	ld	hl, #0x0090
	add	hl, de
	ld	(hl), #0x03
	inc	hl
	ld	(hl), #0x00
;e4vm.c:115: (*v)->mem[4] = 4;
	ld	l, c
	ld	h, b
	ld	e, (hl)
	inc	hl
	ld	d, (hl)
	ld	hl, #0x0092
	add	hl, de
	ld	(hl), #0x04
	inc	hl
	ld	(hl), #0x00
;e4vm.c:116: (*v)->mem[5] = 5;
	ld	l, c
	ld	h, b
	ld	e, (hl)
	inc	hl
	ld	d, (hl)
	ld	hl, #0x0094
	add	hl, de
	ld	(hl), #0x05
	inc	hl
	ld	(hl), #0x00
;e4vm.c:117: (*v)->wp = 5;
	ld	l, c
	ld	h, b
	ld	e, (hl)
	inc	hl
	ld	d, (hl)
	inc	de
	inc	de
	ld	h, d
	ld	l, e
	ld	(hl), #0x05
	inc	hl
	ld	(hl), #0x00
;e4vm.c:118: (*v)->mem[6] = 2;
	ld	l, c
	ld	h, b
	ld	e, (hl)
	inc	hl
	ld	d, (hl)
	ld	hl, #0x0096
	add	hl, de
	ld	(hl), #0x02
	inc	hl
	ld	(hl), #0x00
;e4vm.c:119: (*v)->mem[7] = 5;
	ld	l, c
	ld	h, b
	ld	e, (hl)
	inc	hl
	ld	d, (hl)
	ld	hl, #0x0098
	add	hl, de
	ld	(hl), #0x05
	inc	hl
	ld	(hl), #0x00
;e4vm.c:120: (*v)->mem[8] = 555;
	ld	l, c
	ld	h, b
	ld	e, (hl)
	inc	hl
	ld	d, (hl)
	ld	hl, #0x009a
	add	hl, de
	ld	(hl), #0x2b
	inc	hl
	ld	(hl), #0x02
;e4vm.c:121: (*v)->mem[9] = 3;
	ld	l, c
	ld	h, b
	ld	e, (hl)
	inc	hl
	ld	d, (hl)
	ld	hl, #0x009c
	add	hl, de
	ld	(hl), #0x03
	inc	hl
	ld	(hl), #0x00
;e4vm.c:122: e4vm_core_do_list(v);
	push	bc
	push	bc
	call	_e4vm_core_do_list
	pop	af
	ld	l, 4 (ix)
	ld	h, 5 (ix)
	push	hl
	call	_e4vm_core_do_next
	pop	af
;e4vm.c:124: if ((*v)->ds[0] == 555) {
	pop	hl
	ld	c, (hl)
	inc	hl
	ld	h, (hl)
	ld	l, c
	ld	de, #0x0044
	add	hl, de
	ld	c, (hl)
	inc	hl
	ld	b, (hl)
	ld	a, c
	sub	a, #0x2b
	jr	NZ,00102$
	ld	a, b
	sub	a, #0x02
	jr	NZ,00102$
;e4vm.c:125: Console_WriteStrLn((CHAR*)" - ok", 6);
	ld	hl, #___str_2
	call	_Console_WriteStr_C_COMPACT
	call	_Console_WriteLn_COMPACT
	jr	00104$
00102$:
;e4vm.c:127: Console_WriteStrLn((CHAR*)" - error", 9);
	ld	hl, #___str_3
	call	_Console_WriteStr_C_COMPACT
	call	_Console_WriteLn_COMPACT
00104$:
;e4vm.c:129: }
	pop	ix
	ret
___str_1:
	.ascii "dolit "
	.db 0x00
___str_2:
	.ascii " - ok"
	.db 0x00
___str_3:
	.ascii " - error"
	.db 0x00
;e4vm.c:132: int main (int argc, char **argv)
;	---------------------------------
; Function main
; ---------------------------------
_main::
;e4vm.c:137: __IMPORT(e4vm_core__init);
	call	_e4vm_core__init
;e4vm.c:138: __IMPORT(e4vm_utils__init);
	call	_e4vm_utils__init
;e4vm.c:141: Basic_Init();
	res	4,1(iy) 
	call 0x1642 
;e4vm.c:142: Console_Clear(7);
	ld	l, #0x07
	call	_Console_Clear_COMPACT
;e4vm.c:143: Console_SetColors(56);
	ld	hl, #_Console_attrib
	ld	(hl), #0x38
;e4vm.c:144: e4vm_vm = (e4vm_type_x4thPtr)((SYSTEM_ADRINT)&e4vm_vm_static);
	ld	hl, #_e4vm_vm_static
	ld	(_e4vm_vm), hl
;e4vm.c:145: e4vm_test_dolit(&e4vm_vm);
	ld	hl, #_e4vm_vm
	push	hl
	call	_e4vm_test_dolit
	pop	af
;e4vm.c:146: Basic_PAUSE(0);
	ld	hl, #0x0000
	call	_Basic_PAUSE_EI
;e4vm.c:147: Basic_Quit();
;e4vm.c:148: __FINI;
;e4vm.c:149: }
	jp  _Basic_Quit_IM1
	.area _CODE
	.area _INITIALIZER
	.area _CABS (ABS)
