                              1 ;--------------------------------------------------------
                              2 ; File Created by SDCC : free open source ANSI-C Compiler
                              3 ; Version 3.9.3 #11378 (MINGW32)
                              4 ;--------------------------------------------------------
                              5 	.module e4vm_utils
                              6 	.optsdcc -mz80
                              7 	
                              8 ;--------------------------------------------------------
                              9 ; Public variables in this module
                             10 ;--------------------------------------------------------
                             11 	.globl _e4vm_utils__init
                             12 	.globl _e4vm_core__init
                             13 	.globl _e4vm_core_do_nop
                             14 	.globl _e4vm_type__init
                             15 	.globl _Console_WriteStr_C_COMPACT
                             16 	.globl _Console_WriteInt_COMPACT
                             17 	.globl _Console_WriteLn_COMPACT
                             18 	.globl _e4vm_utils_init
                             19 	.globl _e4vm_utils_vm_stat
                             20 	.globl _e4vm_utils_true_const
                             21 	.globl _e4vm_utils_false_const
                             22 	.globl _e4vm_utils_error
                             23 	.globl _e4vm_utils_stack_ds_push
                             24 	.globl _e4vm_utils_stack_rs_push
                             25 	.globl _e4vm_utils_add_op
                             26 	.globl _e4vm_utils_read_char
                             27 ;--------------------------------------------------------
                             28 ; special function registers
                             29 ;--------------------------------------------------------
                             30 ;--------------------------------------------------------
                             31 ; ram data
                             32 ;--------------------------------------------------------
                             33 	.area _DATA
                             34 ;--------------------------------------------------------
                             35 ; ram data
                             36 ;--------------------------------------------------------
                             37 	.area _INITIALIZED
                             38 ;--------------------------------------------------------
                             39 ; absolute external ram data
                             40 ;--------------------------------------------------------
                             41 	.area _DABS (ABS)
                             42 ;--------------------------------------------------------
                             43 ; global & static initialisations
                             44 ;--------------------------------------------------------
                             45 	.area _HOME
                             46 	.area _GSINIT
                             47 	.area _GSFINAL
                             48 	.area _GSINIT
                             49 ;--------------------------------------------------------
                             50 ; Home
                             51 ;--------------------------------------------------------
                             52 	.area _HOME
                             53 	.area _HOME
                             54 ;--------------------------------------------------------
                             55 ; code
                             56 ;--------------------------------------------------------
                             57 	.area _CODE
                             58 ;e4vm_utils.c:26: void e4vm_utils_init (e4vm_type_x4thPtr *v)
                             59 ;	---------------------------------
                             60 ; Function e4vm_utils_init
                             61 ; ---------------------------------
   0000                      62 _e4vm_utils_init::
   0000 CDr00r00      [17]   63 	call	___sdcc_enter_ix
   0003 F5            [11]   64 	push	af
   0004 F5            [11]   65 	push	af
                             66 ;e4vm_utils.c:29: (*v)->ip = 0;
   0005 DD 4E 04      [19]   67 	ld	c, 4 (ix)
   0008 DD 46 05      [19]   68 	ld	b, 5 (ix)
   000B 69            [ 4]   69 	ld	l, c
   000C 60            [ 4]   70 	ld	h, b
   000D 5E            [ 7]   71 	ld	e, (hl)
   000E 23            [ 6]   72 	inc	hl
   000F 56            [ 7]   73 	ld	d, (hl)
   0010 AF            [ 4]   74 	xor	a, a
   0011 12            [ 7]   75 	ld	(de), a
   0012 13            [ 6]   76 	inc	de
   0013 12            [ 7]   77 	ld	(de), a
                             78 ;e4vm_utils.c:30: (*v)->wp = 0;
   0014 69            [ 4]   79 	ld	l, c
   0015 60            [ 4]   80 	ld	h, b
   0016 5E            [ 7]   81 	ld	e, (hl)
   0017 23            [ 6]   82 	inc	hl
   0018 56            [ 7]   83 	ld	d, (hl)
   0019 13            [ 6]   84 	inc	de
   001A 13            [ 6]   85 	inc	de
   001B AF            [ 4]   86 	xor	a, a
   001C 12            [ 7]   87 	ld	(de), a
   001D 13            [ 6]   88 	inc	de
   001E 12            [ 7]   89 	ld	(de), a
                             90 ;e4vm_utils.c:31: (*v)->hereP = 0;
   001F 69            [ 4]   91 	ld	l, c
   0020 60            [ 4]   92 	ld	h, b
   0021 5E            [ 7]   93 	ld	e, (hl)
   0022 23            [ 6]   94 	inc	hl
   0023 56            [ 7]   95 	ld	d, (hl)
   0024 21 88 00      [10]   96 	ld	hl, #0x0088
   0027 19            [11]   97 	add	hl, de
   0028 AF            [ 4]   98 	xor	a, a
   0029 77            [ 7]   99 	ld	(hl), a
   002A 23            [ 6]  100 	inc	hl
   002B 77            [ 7]  101 	ld	(hl), a
                            102 ;e4vm_utils.c:32: (*v)->rs_p = 0;
   002C 69            [ 4]  103 	ld	l, c
   002D 60            [ 4]  104 	ld	h, b
   002E 5E            [ 7]  105 	ld	e, (hl)
   002F 23            [ 6]  106 	inc	hl
   0030 56            [ 7]  107 	ld	d, (hl)
   0031 21 84 00      [10]  108 	ld	hl, #0x0084
   0034 19            [11]  109 	add	hl, de
   0035 AF            [ 4]  110 	xor	a, a
   0036 77            [ 7]  111 	ld	(hl), a
   0037 23            [ 6]  112 	inc	hl
   0038 77            [ 7]  113 	ld	(hl), a
                            114 ;e4vm_utils.c:33: (*v)->ds_p = 0;
   0039 69            [ 4]  115 	ld	l, c
   003A 60            [ 4]  116 	ld	h, b
   003B 5E            [ 7]  117 	ld	e, (hl)
   003C 23            [ 6]  118 	inc	hl
   003D 56            [ 7]  119 	ld	d, (hl)
   003E 21 86 00      [10]  120 	ld	hl, #0x0086
   0041 19            [11]  121 	add	hl, de
   0042 AF            [ 4]  122 	xor	a, a
   0043 77            [ 7]  123 	ld	(hl), a
   0044 23            [ 6]  124 	inc	hl
   0045 77            [ 7]  125 	ld	(hl), a
                            126 ;e4vm_utils.c:34: (*v)->cell_bit_size = 16;
   0046 69            [ 4]  127 	ld	l, c
   0047 60            [ 4]  128 	ld	h, b
   0048 5E            [ 7]  129 	ld	e, (hl)
   0049 23            [ 6]  130 	inc	hl
   004A 56            [ 7]  131 	ld	d, (hl)
   004B 21 CA 00      [10]  132 	ld	hl, #0x00ca
   004E 19            [11]  133 	add	hl, de
   004F 36 10         [10]  134 	ld	(hl), #0x10
   0051 23            [ 6]  135 	inc	hl
   0052 36 00         [10]  136 	ld	(hl), #0x00
                            137 ;e4vm_utils.c:35: (*v)->is_eval_mode = 1;
   0054 69            [ 4]  138 	ld	l, c
   0055 60            [ 4]  139 	ld	h, b
   0056 5E            [ 7]  140 	ld	e, (hl)
   0057 23            [ 6]  141 	inc	hl
   0058 56            [ 7]  142 	ld	d, (hl)
   0059 21 CC 00      [10]  143 	ld	hl, #0x00cc
   005C 19            [11]  144 	add	hl, de
   005D 36 01         [10]  145 	ld	(hl), #0x01
                            146 ;e4vm_utils.c:37: while (i <= 31) {
   005F 11 00 00      [10]  147 	ld	de, #0x0000
   0062                     148 00101$:
   0062 3E 1F         [ 7]  149 	ld	a, #0x1f
   0064 BB            [ 4]  150 	cp	a, e
   0065 3E 00         [ 7]  151 	ld	a, #0x00
   0067 9A            [ 4]  152 	sbc	a, d
   0068 E2r6Dr00      [10]  153 	jp	PO, 00145$
   006B EE 80         [ 7]  154 	xor	a, #0x80
   006D                     155 00145$:
   006D FAr94r00      [10]  156 	jp	M, 00103$
                            157 ;e4vm_utils.c:38: (*v)->mem[i] = 0;
   0070 69            [ 4]  158 	ld	l, c
   0071 60            [ 4]  159 	ld	h, b
   0072 7E            [ 7]  160 	ld	a, (hl)
   0073 23            [ 6]  161 	inc	hl
   0074 66            [ 7]  162 	ld	h, (hl)
   0075 C6 8A         [ 7]  163 	add	a, #0x8a
   0077 DD 77 FE      [19]  164 	ld	-2 (ix), a
   007A 7C            [ 4]  165 	ld	a, h
   007B CE 00         [ 7]  166 	adc	a, #0x00
   007D DD 77 FF      [19]  167 	ld	-1 (ix), a
   0080 6B            [ 4]  168 	ld	l, e
   0081 62            [ 4]  169 	ld	h, d
   0082 29            [11]  170 	add	hl, hl
   0083 DD 7E FE      [19]  171 	ld	a, -2 (ix)
   0086 85            [ 4]  172 	add	a, l
   0087 6F            [ 4]  173 	ld	l, a
   0088 DD 7E FF      [19]  174 	ld	a, -1 (ix)
   008B 8C            [ 4]  175 	adc	a, h
   008C 67            [ 4]  176 	ld	h, a
   008D AF            [ 4]  177 	xor	a, a
   008E 77            [ 7]  178 	ld	(hl), a
   008F 23            [ 6]  179 	inc	hl
   0090 77            [ 7]  180 	ld	(hl), a
                            181 ;e4vm_utils.c:39: i += 1;
   0091 13            [ 6]  182 	inc	de
   0092 18 CE         [12]  183 	jr	00101$
   0094                     184 00103$:
                            185 ;e4vm_utils.c:42: while (i <= 31) {
   0094 11 00 00      [10]  186 	ld	de, #0x0000
   0097                     187 00104$:
   0097 3E 1F         [ 7]  188 	ld	a, #0x1f
   0099 BB            [ 4]  189 	cp	a, e
   009A 3E 00         [ 7]  190 	ld	a, #0x00
   009C 9A            [ 4]  191 	sbc	a, d
   009D E2rA2r00      [10]  192 	jp	PO, 00146$
   00A0 EE 80         [ 7]  193 	xor	a, #0x80
   00A2                     194 00146$:
   00A2 FArD4r00      [10]  195 	jp	M, 00106$
                            196 ;e4vm_utils.c:43: (*v)->core[i] = e4vm_core_do_nop;
   00A5 69            [ 4]  197 	ld	l, c
   00A6 60            [ 4]  198 	ld	h, b
   00A7 7E            [ 7]  199 	ld	a, (hl)
   00A8 23            [ 6]  200 	inc	hl
   00A9 66            [ 7]  201 	ld	h, (hl)
   00AA C6 CD         [ 7]  202 	add	a, #0xcd
   00AC DD 77 FC      [19]  203 	ld	-4 (ix), a
   00AF 7C            [ 4]  204 	ld	a, h
   00B0 CE 00         [ 7]  205 	adc	a, #0x00
   00B2 DD 77 FD      [19]  206 	ld	-3 (ix), a
   00B5 6B            [ 4]  207 	ld	l, e
   00B6 62            [ 4]  208 	ld	h, d
   00B7 29            [11]  209 	add	hl, hl
   00B8 DD 7E FC      [19]  210 	ld	a, -4 (ix)
   00BB 85            [ 4]  211 	add	a, l
   00BC DD 77 FE      [19]  212 	ld	-2 (ix), a
   00BF DD 7E FD      [19]  213 	ld	a, -3 (ix)
   00C2 8C            [ 4]  214 	adc	a, h
   00C3 DD 77 FF      [19]  215 	ld	-1 (ix), a
   00C6 DD 6E FE      [19]  216 	ld	l, -2 (ix)
   00C9 DD 66 FF      [19]  217 	ld	h, -1 (ix)
   00CC 36r00         [10]  218 	ld	(hl), #<(_e4vm_core_do_nop)
   00CE 23            [ 6]  219 	inc	hl
   00CF 36s00         [10]  220 	ld	(hl), #>(_e4vm_core_do_nop)
                            221 ;e4vm_utils.c:44: i += 1;
   00D1 13            [ 6]  222 	inc	de
   00D2 18 C3         [12]  223 	jr	00104$
   00D4                     224 00106$:
                            225 ;e4vm_utils.c:47: while (i <= 31) {
   00D4 AF            [ 4]  226 	xor	a, a
   00D5 DD 77 FE      [19]  227 	ld	-2 (ix), a
   00D8 DD 77 FF      [19]  228 	ld	-1 (ix), a
   00DB                     229 00107$:
   00DB 3E 1F         [ 7]  230 	ld	a, #0x1f
   00DD DD BE FE      [19]  231 	cp	a, -2 (ix)
   00E0 3E 00         [ 7]  232 	ld	a, #0x00
   00E2 DD 9E FF      [19]  233 	sbc	a, -1 (ix)
   00E5 E2rEAr00      [10]  234 	jp	PO, 00147$
   00E8 EE 80         [ 7]  235 	xor	a, #0x80
   00EA                     236 00147$:
   00EA FAr20r01      [10]  237 	jp	M, 00110$
                            238 ;e4vm_utils.c:48: (*v)->rs[i] = 0;
   00ED 69            [ 4]  239 	ld	l, c
   00EE 60            [ 4]  240 	ld	h, b
   00EF 5E            [ 7]  241 	ld	e, (hl)
   00F0 23            [ 6]  242 	inc	hl
   00F1 56            [ 7]  243 	ld	d, (hl)
   00F2 21 04 00      [10]  244 	ld	hl, #0x0004
   00F5 19            [11]  245 	add	hl, de
   00F6 DD 5E FE      [19]  246 	ld	e, -2 (ix)
   00F9 DD 56 FF      [19]  247 	ld	d, -1 (ix)
   00FC CB 23         [ 8]  248 	sla	e
   00FE CB 12         [ 8]  249 	rl	d
   0100 19            [11]  250 	add	hl, de
   0101 AF            [ 4]  251 	xor	a, a
   0102 77            [ 7]  252 	ld	(hl), a
   0103 23            [ 6]  253 	inc	hl
   0104 77            [ 7]  254 	ld	(hl), a
                            255 ;e4vm_utils.c:49: (*v)->ds[i] = 0;
   0105 69            [ 4]  256 	ld	l, c
   0106 60            [ 4]  257 	ld	h, b
   0107 7E            [ 7]  258 	ld	a, (hl)
   0108 23            [ 6]  259 	inc	hl
   0109 66            [ 7]  260 	ld	h, (hl)
   010A 6F            [ 4]  261 	ld	l, a
   010B D5            [11]  262 	push	de
   010C 11 44 00      [10]  263 	ld	de, #0x0044
   010F 19            [11]  264 	add	hl, de
   0110 D1            [10]  265 	pop	de
   0111 19            [11]  266 	add	hl, de
   0112 AF            [ 4]  267 	xor	a, a
   0113 77            [ 7]  268 	ld	(hl), a
   0114 23            [ 6]  269 	inc	hl
   0115 77            [ 7]  270 	ld	(hl), a
                            271 ;e4vm_utils.c:50: i += 1;
   0116 DD 34 FE      [23]  272 	inc	-2 (ix)
   0119 20 C0         [12]  273 	jr	NZ,00107$
   011B DD 34 FF      [23]  274 	inc	-1 (ix)
   011E 18 BB         [12]  275 	jr	00107$
   0120                     276 00110$:
                            277 ;e4vm_utils.c:52: }
   0120 DD F9         [10]  278 	ld	sp, ix
   0122 DD E1         [14]  279 	pop	ix
   0124 C9            [10]  280 	ret
                            281 ;e4vm_utils.c:55: void e4vm_utils_vm_stat (e4vm_type_x4thPtr *v)
                            282 ;	---------------------------------
                            283 ; Function e4vm_utils_vm_stat
                            284 ; ---------------------------------
   0125                     285 _e4vm_utils_vm_stat::
   0125 CDr00r00      [17]  286 	call	___sdcc_enter_ix
   0128 F5            [11]  287 	push	af
                            288 ;e4vm_utils.c:58: Console_WriteStrLn((CHAR*)" ", 2);
   0129 21rCEr02      [10]  289 	ld	hl, #___str_0
   012C CDr00r00      [17]  290 	call	_Console_WriteStr_C_COMPACT
   012F CDr00r00      [17]  291 	call	_Console_WriteLn_COMPACT
                            292 ;e4vm_utils.c:59: Console_WriteStr((CHAR*)"ip:", 4);
   0132 21rD0r02      [10]  293 	ld	hl, #___str_1
   0135 CDr00r00      [17]  294 	call	_Console_WriteStr_C_COMPACT
                            295 ;e4vm_utils.c:60: Console_WriteInt((*v)->ip);
   0138 DD 4E 04      [19]  296 	ld	c, 4 (ix)
   013B DD 46 05      [19]  297 	ld	b, 5 (ix)
   013E 69            [ 4]  298 	ld	l, c
   013F 60            [ 4]  299 	ld	h, b
   0140 5E            [ 7]  300 	ld	e, (hl)
   0141 23            [ 6]  301 	inc	hl
   0142 66            [ 7]  302 	ld	h, (hl)
   0143 6B            [ 4]  303 	ld	l, e
   0144 5E            [ 7]  304 	ld	e, (hl)
   0145 23            [ 6]  305 	inc	hl
   0146 66            [ 7]  306 	ld	h, (hl)
   0147 C5            [11]  307 	push	bc
   0148 6B            [ 4]  308 	ld	l, e
   0149 CDr00r00      [17]  309 	call	_Console_WriteInt_COMPACT
   014C 21rD4r02      [10]  310 	ld	hl, #___str_2
   014F CDr00r00      [17]  311 	call	_Console_WriteStr_C_COMPACT
   0152 C1            [10]  312 	pop	bc
                            313 ;e4vm_utils.c:62: Console_WriteInt((*v)->wp);
   0153 69            [ 4]  314 	ld	l, c
   0154 60            [ 4]  315 	ld	h, b
   0155 5E            [ 7]  316 	ld	e, (hl)
   0156 23            [ 6]  317 	inc	hl
   0157 66            [ 7]  318 	ld	h, (hl)
   0158 6B            [ 4]  319 	ld	l, e
   0159 23            [ 6]  320 	inc	hl
   015A 23            [ 6]  321 	inc	hl
   015B 5E            [ 7]  322 	ld	e, (hl)
   015C 23            [ 6]  323 	inc	hl
   015D 66            [ 7]  324 	ld	h, (hl)
   015E C5            [11]  325 	push	bc
   015F 6B            [ 4]  326 	ld	l, e
   0160 CDr00r00      [17]  327 	call	_Console_WriteInt_COMPACT
   0163 21rD9r02      [10]  328 	ld	hl, #___str_3
   0166 CDr00r00      [17]  329 	call	_Console_WriteStr_C_COMPACT
   0169 C1            [10]  330 	pop	bc
                            331 ;e4vm_utils.c:64: Console_WriteInt((*v)->hereP);
   016A 69            [ 4]  332 	ld	l, c
   016B 60            [ 4]  333 	ld	h, b
   016C 5E            [ 7]  334 	ld	e, (hl)
   016D 23            [ 6]  335 	inc	hl
   016E 66            [ 7]  336 	ld	h, (hl)
   016F 6B            [ 4]  337 	ld	l, e
   0170 11 88 00      [10]  338 	ld	de, #0x0088
   0173 19            [11]  339 	add	hl, de
   0174 5E            [ 7]  340 	ld	e, (hl)
   0175 23            [ 6]  341 	inc	hl
   0176 66            [ 7]  342 	ld	h, (hl)
   0177 C5            [11]  343 	push	bc
   0178 6B            [ 4]  344 	ld	l, e
   0179 CDr00r00      [17]  345 	call	_Console_WriteInt_COMPACT
   017C 21rCEr02      [10]  346 	ld	hl, #___str_0
   017F CDr00r00      [17]  347 	call	_Console_WriteStr_C_COMPACT
   0182 CDr00r00      [17]  348 	call	_Console_WriteLn_COMPACT
   0185 21rE1r02      [10]  349 	ld	hl, #___str_4
   0188 CDr00r00      [17]  350 	call	_Console_WriteStr_C_COMPACT
   018B C1            [10]  351 	pop	bc
                            352 ;e4vm_utils.c:67: Console_WriteInt((*v)->rs_p);
   018C 69            [ 4]  353 	ld	l, c
   018D 60            [ 4]  354 	ld	h, b
   018E 5E            [ 7]  355 	ld	e, (hl)
   018F 23            [ 6]  356 	inc	hl
   0190 66            [ 7]  357 	ld	h, (hl)
   0191 6B            [ 4]  358 	ld	l, e
   0192 11 84 00      [10]  359 	ld	de, #0x0084
   0195 19            [11]  360 	add	hl, de
   0196 5E            [ 7]  361 	ld	e, (hl)
   0197 23            [ 6]  362 	inc	hl
   0198 66            [ 7]  363 	ld	h, (hl)
   0199 C5            [11]  364 	push	bc
   019A 6B            [ 4]  365 	ld	l, e
   019B CDr00r00      [17]  366 	call	_Console_WriteInt_COMPACT
   019E 21rCEr02      [10]  367 	ld	hl, #___str_0
   01A1 CDr00r00      [17]  368 	call	_Console_WriteStr_C_COMPACT
   01A4 CDr00r00      [17]  369 	call	_Console_WriteLn_COMPACT
   01A7 21rE7r02      [10]  370 	ld	hl, #___str_5
   01AA CDr00r00      [17]  371 	call	_Console_WriteStr_C_COMPACT
   01AD CDr00r00      [17]  372 	call	_Console_WriteLn_COMPACT
   01B0 C1            [10]  373 	pop	bc
                            374 ;e4vm_utils.c:71: while (i <= 31) {
   01B1 11 00 00      [10]  375 	ld	de, #0x0000
   01B4                     376 00101$:
   01B4 3E 1F         [ 7]  377 	ld	a, #0x1f
   01B6 BB            [ 4]  378 	cp	a, e
   01B7 3E 00         [ 7]  379 	ld	a, #0x00
   01B9 9A            [ 4]  380 	sbc	a, d
   01BA E2rBFr01      [10]  381 	jp	PO, 00145$
   01BD EE 80         [ 7]  382 	xor	a, #0x80
   01BF                     383 00145$:
   01BF FArF3r01      [10]  384 	jp	M, 00103$
                            385 ;e4vm_utils.c:72: Console_WriteInt((*v)->rs[i]);
   01C2 69            [ 4]  386 	ld	l, c
   01C3 60            [ 4]  387 	ld	h, b
   01C4 7E            [ 7]  388 	ld	a, (hl)
   01C5 23            [ 6]  389 	inc	hl
   01C6 66            [ 7]  390 	ld	h, (hl)
   01C7 C6 04         [ 7]  391 	add	a, #0x04
   01C9 DD 77 FE      [19]  392 	ld	-2 (ix), a
   01CC 7C            [ 4]  393 	ld	a, h
   01CD CE 00         [ 7]  394 	adc	a, #0x00
   01CF DD 77 FF      [19]  395 	ld	-1 (ix), a
   01D2 6B            [ 4]  396 	ld	l, e
   01D3 62            [ 4]  397 	ld	h, d
   01D4 29            [11]  398 	add	hl, hl
   01D5 DD 7E FE      [19]  399 	ld	a, -2 (ix)
   01D8 85            [ 4]  400 	add	a, l
   01D9 6F            [ 4]  401 	ld	l, a
   01DA DD 7E FF      [19]  402 	ld	a, -1 (ix)
   01DD 8C            [ 4]  403 	adc	a, h
   01DE 67            [ 4]  404 	ld	h, a
   01DF 7E            [ 7]  405 	ld	a, (hl)
   01E0 23            [ 6]  406 	inc	hl
   01E1 66            [ 7]  407 	ld	h, (hl)
   01E2 6F            [ 4]  408 	ld	l, a
   01E3 C5            [11]  409 	push	bc
   01E4 D5            [11]  410 	push	de
   01E5 CDr00r00      [17]  411 	call	_Console_WriteInt_COMPACT
   01E8 21rCEr02      [10]  412 	ld	hl, #___str_0
   01EB CDr00r00      [17]  413 	call	_Console_WriteStr_C_COMPACT
   01EE D1            [10]  414 	pop	de
   01EF C1            [10]  415 	pop	bc
                            416 ;e4vm_utils.c:74: i += 1;
   01F0 13            [ 6]  417 	inc	de
   01F1 18 C1         [12]  418 	jr	00101$
   01F3                     419 00103$:
                            420 ;e4vm_utils.c:76: Console_WriteStrLn((CHAR*)"]", 2);
   01F3 C5            [11]  421 	push	bc
   01F4 21rEDr02      [10]  422 	ld	hl, #___str_6
   01F7 CDr00r00      [17]  423 	call	_Console_WriteStr_C_COMPACT
   01FA CDr00r00      [17]  424 	call	_Console_WriteLn_COMPACT
   01FD 21rEFr02      [10]  425 	ld	hl, #___str_7
   0200 CDr00r00      [17]  426 	call	_Console_WriteStr_C_COMPACT
   0203 C1            [10]  427 	pop	bc
                            428 ;e4vm_utils.c:78: Console_WriteInt((*v)->ds_p);
   0204 69            [ 4]  429 	ld	l, c
   0205 60            [ 4]  430 	ld	h, b
   0206 5E            [ 7]  431 	ld	e, (hl)
   0207 23            [ 6]  432 	inc	hl
   0208 66            [ 7]  433 	ld	h, (hl)
   0209 6B            [ 4]  434 	ld	l, e
   020A 11 86 00      [10]  435 	ld	de, #0x0086
   020D 19            [11]  436 	add	hl, de
   020E 5E            [ 7]  437 	ld	e, (hl)
   020F 23            [ 6]  438 	inc	hl
   0210 66            [ 7]  439 	ld	h, (hl)
   0211 C5            [11]  440 	push	bc
   0212 6B            [ 4]  441 	ld	l, e
   0213 CDr00r00      [17]  442 	call	_Console_WriteInt_COMPACT
   0216 21rCEr02      [10]  443 	ld	hl, #___str_0
   0219 CDr00r00      [17]  444 	call	_Console_WriteStr_C_COMPACT
   021C CDr00r00      [17]  445 	call	_Console_WriteLn_COMPACT
   021F 21rF5r02      [10]  446 	ld	hl, #___str_8
   0222 CDr00r00      [17]  447 	call	_Console_WriteStr_C_COMPACT
   0225 CDr00r00      [17]  448 	call	_Console_WriteLn_COMPACT
   0228 C1            [10]  449 	pop	bc
                            450 ;e4vm_utils.c:82: while (i <= 31) {
   0229 11 00 00      [10]  451 	ld	de, #0x0000
   022C                     452 00104$:
   022C 3E 1F         [ 7]  453 	ld	a, #0x1f
   022E BB            [ 4]  454 	cp	a, e
   022F 3E 00         [ 7]  455 	ld	a, #0x00
   0231 9A            [ 4]  456 	sbc	a, d
   0232 E2r37r02      [10]  457 	jp	PO, 00146$
   0235 EE 80         [ 7]  458 	xor	a, #0x80
   0237                     459 00146$:
   0237 FAr6Br02      [10]  460 	jp	M, 00106$
                            461 ;e4vm_utils.c:83: Console_WriteInt((*v)->ds[i]);
   023A 69            [ 4]  462 	ld	l, c
   023B 60            [ 4]  463 	ld	h, b
   023C 7E            [ 7]  464 	ld	a, (hl)
   023D 23            [ 6]  465 	inc	hl
   023E 66            [ 7]  466 	ld	h, (hl)
   023F C6 44         [ 7]  467 	add	a, #0x44
   0241 DD 77 FE      [19]  468 	ld	-2 (ix), a
   0244 7C            [ 4]  469 	ld	a, h
   0245 CE 00         [ 7]  470 	adc	a, #0x00
   0247 DD 77 FF      [19]  471 	ld	-1 (ix), a
   024A 6B            [ 4]  472 	ld	l, e
   024B 62            [ 4]  473 	ld	h, d
   024C 29            [11]  474 	add	hl, hl
   024D 7D            [ 4]  475 	ld	a, l
   024E DD 86 FE      [19]  476 	add	a, -2 (ix)
   0251 6F            [ 4]  477 	ld	l, a
   0252 7C            [ 4]  478 	ld	a, h
   0253 DD 8E FF      [19]  479 	adc	a, -1 (ix)
   0256 67            [ 4]  480 	ld	h, a
   0257 7E            [ 7]  481 	ld	a, (hl)
   0258 23            [ 6]  482 	inc	hl
   0259 66            [ 7]  483 	ld	h, (hl)
   025A 6F            [ 4]  484 	ld	l, a
   025B C5            [11]  485 	push	bc
   025C D5            [11]  486 	push	de
   025D CDr00r00      [17]  487 	call	_Console_WriteInt_COMPACT
   0260 21rCEr02      [10]  488 	ld	hl, #___str_0
   0263 CDr00r00      [17]  489 	call	_Console_WriteStr_C_COMPACT
   0266 D1            [10]  490 	pop	de
   0267 C1            [10]  491 	pop	bc
                            492 ;e4vm_utils.c:85: i += 1;
   0268 13            [ 6]  493 	inc	de
   0269 18 C1         [12]  494 	jr	00104$
   026B                     495 00106$:
                            496 ;e4vm_utils.c:87: Console_WriteStrLn((CHAR*)"]", 2);
   026B C5            [11]  497 	push	bc
   026C 21rEDr02      [10]  498 	ld	hl, #___str_6
   026F CDr00r00      [17]  499 	call	_Console_WriteStr_C_COMPACT
   0272 CDr00r00      [17]  500 	call	_Console_WriteLn_COMPACT
   0275 21rFBr02      [10]  501 	ld	hl, #___str_9
   0278 CDr00r00      [17]  502 	call	_Console_WriteStr_C_COMPACT
   027B CDr00r00      [17]  503 	call	_Console_WriteLn_COMPACT
   027E C1            [10]  504 	pop	bc
                            505 ;e4vm_utils.c:90: while (i <= 31) {
   027F 11 00 00      [10]  506 	ld	de, #0x0000
   0282                     507 00107$:
   0282 3E 1F         [ 7]  508 	ld	a, #0x1f
   0284 BB            [ 4]  509 	cp	a, e
   0285 3E 00         [ 7]  510 	ld	a, #0x00
   0287 9A            [ 4]  511 	sbc	a, d
   0288 E2r8Dr02      [10]  512 	jp	PO, 00147$
   028B EE 80         [ 7]  513 	xor	a, #0x80
   028D                     514 00147$:
   028D FArC1r02      [10]  515 	jp	M, 00109$
                            516 ;e4vm_utils.c:91: Console_WriteInt((*v)->mem[i]);
   0290 69            [ 4]  517 	ld	l, c
   0291 60            [ 4]  518 	ld	h, b
   0292 7E            [ 7]  519 	ld	a, (hl)
   0293 23            [ 6]  520 	inc	hl
   0294 66            [ 7]  521 	ld	h, (hl)
   0295 C6 8A         [ 7]  522 	add	a, #0x8a
   0297 DD 77 FE      [19]  523 	ld	-2 (ix), a
   029A 7C            [ 4]  524 	ld	a, h
   029B CE 00         [ 7]  525 	adc	a, #0x00
   029D DD 77 FF      [19]  526 	ld	-1 (ix), a
   02A0 6B            [ 4]  527 	ld	l, e
   02A1 62            [ 4]  528 	ld	h, d
   02A2 29            [11]  529 	add	hl, hl
   02A3 DD 7E FE      [19]  530 	ld	a, -2 (ix)
   02A6 85            [ 4]  531 	add	a, l
   02A7 6F            [ 4]  532 	ld	l, a
   02A8 DD 7E FF      [19]  533 	ld	a, -1 (ix)
   02AB 8C            [ 4]  534 	adc	a, h
   02AC 67            [ 4]  535 	ld	h, a
   02AD 7E            [ 7]  536 	ld	a, (hl)
   02AE 23            [ 6]  537 	inc	hl
   02AF 66            [ 7]  538 	ld	h, (hl)
   02B0 6F            [ 4]  539 	ld	l, a
   02B1 C5            [11]  540 	push	bc
   02B2 D5            [11]  541 	push	de
   02B3 CDr00r00      [17]  542 	call	_Console_WriteInt_COMPACT
   02B6 21rCEr02      [10]  543 	ld	hl, #___str_0
   02B9 CDr00r00      [17]  544 	call	_Console_WriteStr_C_COMPACT
   02BC D1            [10]  545 	pop	de
   02BD C1            [10]  546 	pop	bc
                            547 ;e4vm_utils.c:93: i += 1;
   02BE 13            [ 6]  548 	inc	de
   02BF 18 C1         [12]  549 	jr	00107$
   02C1                     550 00109$:
                            551 ;e4vm_utils.c:95: Console_WriteStrLn((CHAR*)"]", 2);
   02C1 21rEDr02      [10]  552 	ld	hl, #___str_6
   02C4 CDr00r00      [17]  553 	call	_Console_WriteStr_C_COMPACT
   02C7 CDr00r00      [17]  554 	call	_Console_WriteLn_COMPACT
                            555 ;e4vm_utils.c:96: }
   02CA F1            [10]  556 	pop	af
   02CB DD E1         [14]  557 	pop	ix
   02CD C9            [10]  558 	ret
   02CE                     559 ___str_0:
   02CE 20                  560 	.ascii " "
   02CF 00                  561 	.db 0x00
   02D0                     562 ___str_1:
   02D0 69 70 3A            563 	.ascii "ip:"
   02D3 00                  564 	.db 0x00
   02D4                     565 ___str_2:
   02D4 20 77 70 3A         566 	.ascii " wp:"
   02D8 00                  567 	.db 0x00
   02D9                     568 ___str_3:
   02D9 20 68 65 72 65 50   569 	.ascii " hereP:"
        3A
   02E0 00                  570 	.db 0x00
   02E1                     571 ___str_4:
   02E1 72 73 5F 70 3A      572 	.ascii "rs_p:"
   02E6 00                  573 	.db 0x00
   02E7                     574 ___str_5:
   02E7 72 73 3A 20 5B      575 	.ascii "rs: ["
   02EC 00                  576 	.db 0x00
   02ED                     577 ___str_6:
   02ED 5D                  578 	.ascii "]"
   02EE 00                  579 	.db 0x00
   02EF                     580 ___str_7:
   02EF 64 73 5F 70 3A      581 	.ascii "ds_p:"
   02F4 00                  582 	.db 0x00
   02F5                     583 ___str_8:
   02F5 64 73 3A 20 5B      584 	.ascii "ds: ["
   02FA 00                  585 	.db 0x00
   02FB                     586 ___str_9:
   02FB 6D 65 6D 3A 20 5B   587 	.ascii "mem: ["
   0301 00                  588 	.db 0x00
                            589 ;e4vm_utils.c:99: SHORTINT e4vm_utils_true_const (e4vm_type_x4thPtr *v)
                            590 ;	---------------------------------
                            591 ; Function e4vm_utils_true_const
                            592 ; ---------------------------------
   0302                     593 _e4vm_utils_true_const::
   0302 CDr00r00      [17]  594 	call	___sdcc_enter_ix
                            595 ;e4vm_utils.c:101: return -1;
   0305 21 FF FF      [10]  596 	ld	hl, #0xffff
                            597 ;e4vm_utils.c:102: }
   0308 DD E1         [14]  598 	pop	ix
   030A C9            [10]  599 	ret
                            600 ;e4vm_utils.c:105: SHORTINT e4vm_utils_false_const (e4vm_type_x4thPtr *v)
                            601 ;	---------------------------------
                            602 ; Function e4vm_utils_false_const
                            603 ; ---------------------------------
   030B                     604 _e4vm_utils_false_const::
   030B CDr00r00      [17]  605 	call	___sdcc_enter_ix
                            606 ;e4vm_utils.c:107: return 0;
   030E 21 00 00      [10]  607 	ld	hl, #0x0000
                            608 ;e4vm_utils.c:108: }
   0311 DD E1         [14]  609 	pop	ix
   0313 C9            [10]  610 	ret
                            611 ;e4vm_utils.c:111: void e4vm_utils_error (CHAR *err, SHORTINT err__len)
                            612 ;	---------------------------------
                            613 ; Function e4vm_utils_error
                            614 ; ---------------------------------
   0314                     615 _e4vm_utils_error::
   0314 CDr00r00      [17]  616 	call	___sdcc_enter_ix
                            617 ;e4vm_utils.c:113: Console_WriteStr((CHAR*)"Error: ", 8);
   0317 21r31r03      [10]  618 	ld	hl, #___str_10
   031A CDr00r00      [17]  619 	call	_Console_WriteStr_C_COMPACT
                            620 ;e4vm_utils.c:114: Console_WriteStr((void*)err, err__len);
   031D DD 6E 04      [19]  621 	ld	l, 4 (ix)
   0320 DD 66 05      [19]  622 	ld	h, 5 (ix)
   0323 CDr00r00      [17]  623 	call	_Console_WriteStr_C_COMPACT
                            624 ;e4vm_utils.c:115: Console_WriteStrLn((CHAR*)"", 1);
   0326 21r39r03      [10]  625 	ld	hl, #___str_11
   0329 CDr00r00      [17]  626 	call	_Console_WriteStr_C_COMPACT
                            627 ;e4vm_utils.c:116: }
   032C DD E1         [14]  628 	pop	ix
   032E C3r00r00      [10]  629 	jp	_Console_WriteLn_COMPACT
   0331                     630 ___str_10:
   0331 45 72 72 6F 72 3A   631 	.ascii "Error: "
        20
   0338 00                  632 	.db 0x00
   0339                     633 ___str_11:
   0339 00                  634 	.db 0x00
                            635 ;e4vm_utils.c:119: void e4vm_utils_stack_ds_push (e4vm_type_x4thPtr *v, SHORTINT x)
                            636 ;	---------------------------------
                            637 ; Function e4vm_utils_stack_ds_push
                            638 ; ---------------------------------
   033A                     639 _e4vm_utils_stack_ds_push::
   033A CDr00r00      [17]  640 	call	___sdcc_enter_ix
                            641 ;e4vm_utils.c:121: (*v)->ds[(*v)->ds_p] = x;
   033D DD 4E 04      [19]  642 	ld	c, 4 (ix)
   0340 DD 46 05      [19]  643 	ld	b, 5 (ix)
   0343 69            [ 4]  644 	ld	l, c
   0344 60            [ 4]  645 	ld	h, b
   0345 7E            [ 7]  646 	ld	a, (hl)
   0346 23            [ 6]  647 	inc	hl
   0347 66            [ 7]  648 	ld	h, (hl)
   0348 6F            [ 4]  649 	ld	l, a
   0349 C6 44         [ 7]  650 	add	a, #0x44
   034B 5F            [ 4]  651 	ld	e, a
   034C 7C            [ 4]  652 	ld	a, h
   034D CE 00         [ 7]  653 	adc	a, #0x00
   034F 57            [ 4]  654 	ld	d, a
   0350 C5            [11]  655 	push	bc
   0351 01 86 00      [10]  656 	ld	bc, #0x0086
   0354 09            [11]  657 	add	hl, bc
   0355 C1            [10]  658 	pop	bc
   0356 7E            [ 7]  659 	ld	a, (hl)
   0357 23            [ 6]  660 	inc	hl
   0358 66            [ 7]  661 	ld	h, (hl)
   0359 6F            [ 4]  662 	ld	l, a
   035A 29            [11]  663 	add	hl, hl
   035B 19            [11]  664 	add	hl, de
   035C EB            [ 4]  665 	ex	de, hl
   035D DD 7E 06      [19]  666 	ld	a, 6 (ix)
   0360 12            [ 7]  667 	ld	(de), a
   0361 13            [ 6]  668 	inc	de
   0362 DD 7E 07      [19]  669 	ld	a, 7 (ix)
   0365 12            [ 7]  670 	ld	(de), a
                            671 ;e4vm_utils.c:122: (*v)->ds_p = (*v)->ds_p + 1;
   0366 69            [ 4]  672 	ld	l, c
   0367 60            [ 4]  673 	ld	h, b
   0368 4E            [ 7]  674 	ld	c, (hl)
   0369 23            [ 6]  675 	inc	hl
   036A 46            [ 7]  676 	ld	b, (hl)
   036B 21 86 00      [10]  677 	ld	hl, #0x0086
   036E 09            [11]  678 	add	hl, bc
   036F 4E            [ 7]  679 	ld	c, (hl)
   0370 23            [ 6]  680 	inc	hl
   0371 46            [ 7]  681 	ld	b, (hl)
   0372 2B            [ 6]  682 	dec	hl
   0373 03            [ 6]  683 	inc	bc
   0374 78            [ 4]  684 	ld	a, b
   0375 71            [ 7]  685 	ld	(hl), c
   0376 23            [ 6]  686 	inc	hl
   0377 77            [ 7]  687 	ld	(hl), a
                            688 ;e4vm_utils.c:123: }
   0378 DD E1         [14]  689 	pop	ix
   037A C9            [10]  690 	ret
                            691 ;e4vm_utils.c:126: void e4vm_utils_stack_rs_push (e4vm_type_x4thPtr *v, SHORTINT x)
                            692 ;	---------------------------------
                            693 ; Function e4vm_utils_stack_rs_push
                            694 ; ---------------------------------
   037B                     695 _e4vm_utils_stack_rs_push::
   037B CDr00r00      [17]  696 	call	___sdcc_enter_ix
                            697 ;e4vm_utils.c:128: (*v)->rs[(*v)->rs_p] = x;
   037E DD 4E 04      [19]  698 	ld	c, 4 (ix)
   0381 DD 46 05      [19]  699 	ld	b, 5 (ix)
   0384 69            [ 4]  700 	ld	l, c
   0385 60            [ 4]  701 	ld	h, b
   0386 7E            [ 7]  702 	ld	a, (hl)
   0387 23            [ 6]  703 	inc	hl
   0388 66            [ 7]  704 	ld	h, (hl)
   0389 6F            [ 4]  705 	ld	l, a
   038A C6 04         [ 7]  706 	add	a, #0x04
   038C 5F            [ 4]  707 	ld	e, a
   038D 7C            [ 4]  708 	ld	a, h
   038E CE 00         [ 7]  709 	adc	a, #0x00
   0390 57            [ 4]  710 	ld	d, a
   0391 C5            [11]  711 	push	bc
   0392 01 84 00      [10]  712 	ld	bc, #0x0084
   0395 09            [11]  713 	add	hl, bc
   0396 C1            [10]  714 	pop	bc
   0397 7E            [ 7]  715 	ld	a, (hl)
   0398 23            [ 6]  716 	inc	hl
   0399 66            [ 7]  717 	ld	h, (hl)
   039A 6F            [ 4]  718 	ld	l, a
   039B 29            [11]  719 	add	hl, hl
   039C 19            [11]  720 	add	hl, de
   039D EB            [ 4]  721 	ex	de, hl
   039E DD 7E 06      [19]  722 	ld	a, 6 (ix)
   03A1 12            [ 7]  723 	ld	(de), a
   03A2 13            [ 6]  724 	inc	de
   03A3 DD 7E 07      [19]  725 	ld	a, 7 (ix)
   03A6 12            [ 7]  726 	ld	(de), a
                            727 ;e4vm_utils.c:129: (*v)->rs_p = (*v)->rs_p + 1;
   03A7 69            [ 4]  728 	ld	l, c
   03A8 60            [ 4]  729 	ld	h, b
   03A9 4E            [ 7]  730 	ld	c, (hl)
   03AA 23            [ 6]  731 	inc	hl
   03AB 46            [ 7]  732 	ld	b, (hl)
   03AC 21 84 00      [10]  733 	ld	hl, #0x0084
   03AF 09            [11]  734 	add	hl, bc
   03B0 4E            [ 7]  735 	ld	c, (hl)
   03B1 23            [ 6]  736 	inc	hl
   03B2 46            [ 7]  737 	ld	b, (hl)
   03B3 2B            [ 6]  738 	dec	hl
   03B4 03            [ 6]  739 	inc	bc
   03B5 78            [ 4]  740 	ld	a, b
   03B6 71            [ 7]  741 	ld	(hl), c
   03B7 23            [ 6]  742 	inc	hl
   03B8 77            [ 7]  743 	ld	(hl), a
                            744 ;e4vm_utils.c:130: }
   03B9 DD E1         [14]  745 	pop	ix
   03BB C9            [10]  746 	ret
                            747 ;e4vm_utils.c:133: void e4vm_utils_add_op (e4vm_type_x4thPtr *v, SHORTINT addr)
                            748 ;	---------------------------------
                            749 ; Function e4vm_utils_add_op
                            750 ; ---------------------------------
   03BC                     751 _e4vm_utils_add_op::
   03BC CDr00r00      [17]  752 	call	___sdcc_enter_ix
                            753 ;e4vm_utils.c:135: (*v)->mem[(*v)->hereP] = addr;
   03BF DD 4E 04      [19]  754 	ld	c, 4 (ix)
   03C2 DD 46 05      [19]  755 	ld	b, 5 (ix)
   03C5 69            [ 4]  756 	ld	l, c
   03C6 60            [ 4]  757 	ld	h, b
   03C7 7E            [ 7]  758 	ld	a, (hl)
   03C8 23            [ 6]  759 	inc	hl
   03C9 66            [ 7]  760 	ld	h, (hl)
   03CA 6F            [ 4]  761 	ld	l, a
   03CB C6 8A         [ 7]  762 	add	a, #0x8a
   03CD 5F            [ 4]  763 	ld	e, a
   03CE 7C            [ 4]  764 	ld	a, h
   03CF CE 00         [ 7]  765 	adc	a, #0x00
   03D1 57            [ 4]  766 	ld	d, a
   03D2 C5            [11]  767 	push	bc
   03D3 01 88 00      [10]  768 	ld	bc, #0x0088
   03D6 09            [11]  769 	add	hl, bc
   03D7 C1            [10]  770 	pop	bc
   03D8 7E            [ 7]  771 	ld	a, (hl)
   03D9 23            [ 6]  772 	inc	hl
   03DA 66            [ 7]  773 	ld	h, (hl)
   03DB 6F            [ 4]  774 	ld	l, a
   03DC 29            [11]  775 	add	hl, hl
   03DD 19            [11]  776 	add	hl, de
   03DE EB            [ 4]  777 	ex	de, hl
   03DF DD 7E 06      [19]  778 	ld	a, 6 (ix)
   03E2 12            [ 7]  779 	ld	(de), a
   03E3 13            [ 6]  780 	inc	de
   03E4 DD 7E 07      [19]  781 	ld	a, 7 (ix)
   03E7 12            [ 7]  782 	ld	(de), a
                            783 ;e4vm_utils.c:136: (*v)->hereP = (*v)->hereP + 1;
   03E8 69            [ 4]  784 	ld	l, c
   03E9 60            [ 4]  785 	ld	h, b
   03EA 4E            [ 7]  786 	ld	c, (hl)
   03EB 23            [ 6]  787 	inc	hl
   03EC 46            [ 7]  788 	ld	b, (hl)
   03ED 21 88 00      [10]  789 	ld	hl, #0x0088
   03F0 09            [11]  790 	add	hl, bc
   03F1 4E            [ 7]  791 	ld	c, (hl)
   03F2 23            [ 6]  792 	inc	hl
   03F3 46            [ 7]  793 	ld	b, (hl)
   03F4 2B            [ 6]  794 	dec	hl
   03F5 03            [ 6]  795 	inc	bc
   03F6 78            [ 4]  796 	ld	a, b
   03F7 71            [ 7]  797 	ld	(hl), c
   03F8 23            [ 6]  798 	inc	hl
   03F9 77            [ 7]  799 	ld	(hl), a
                            800 ;e4vm_utils.c:137: }
   03FA DD E1         [14]  801 	pop	ix
   03FC C9            [10]  802 	ret
                            803 ;e4vm_utils.c:140: CHAR e4vm_utils_read_char (e4vm_type_x4thPtr *v)
                            804 ;	---------------------------------
                            805 ; Function e4vm_utils_read_char
                            806 ; ---------------------------------
   03FD                     807 _e4vm_utils_read_char::
   03FD CDr00r00      [17]  808 	call	___sdcc_enter_ix
                            809 ;e4vm_utils.c:142: do {
   0400                     810 00101$:
                            811 ;e4vm_utils.c:143: } while (!(!(Basic_PEEK(23556) == 255)));
   0400 3A 04 5C      [13]  812 	ld	a, (#0x5c04)
   0403 3C            [ 4]  813 	inc	a
   0404 28 FA         [12]  814 	jr	Z,00101$
                            815 ;e4vm_utils.c:144: return Basic_PEEK(23560);
   0406 21 08 5C      [10]  816 	ld	hl, #0x5c08
   0409 6E            [ 7]  817 	ld	l, (hl)
                            818 ;e4vm_utils.c:145: }
   040A DD E1         [14]  819 	pop	ix
   040C C9            [10]  820 	ret
                            821 ;e4vm_utils.c:149: export void *e4vm_utils__init (void)
                            822 ;	---------------------------------
                            823 ; Function e4vm_utils__init
                            824 ; ---------------------------------
   040D                     825 _e4vm_utils__init::
                            826 ;e4vm_utils.c:151: __DEFMOD;
   040D 21r0Dr04      [10]  827 	LD	HL,#. 
   0410 36 C9         [10]  828 	LD (HL),#0xC9 
                            829 ;e4vm_utils.c:154: __IMPORT(e4vm_core__init);
   0412 CDr00r00      [17]  830 	call	_e4vm_core__init
                            831 ;e4vm_utils.c:155: __IMPORT(e4vm_type__init);
                            832 ;e4vm_utils.c:159: }
   0415 C3r00r00      [10]  833 	jp  _e4vm_type__init
                            834 	.area _CODE
                            835 	.area _INITIALIZER
                            836 	.area _CABS (ABS)
