                              1 ;--------------------------------------------------------
                              2 ; File Created by SDCC : free open source ANSI-C Compiler
                              3 ; Version 3.9.3 #11378 (MINGW32)
                              4 ;--------------------------------------------------------
                              5 	.module e4vm_math
                              6 	.optsdcc -mz80
                              7 	
                              8 ;--------------------------------------------------------
                              9 ; Public variables in this module
                             10 ;--------------------------------------------------------
                             11 	.globl _e4vm_math__init
                             12 	.globl _e4vm_utils__init
                             13 	.globl _e4vm_utils_add_core_word
                             14 	.globl _e4vm_type__init
                             15 	.globl _SYSTEM_MODS
                             16 	.globl _SYSTEM_DIVS
                             17 	.globl _memcpy
                             18 	.globl _e4vm_math_minus
                             19 	.globl _e4vm_math_plus
                             20 	.globl _e4vm_math_multiply
                             21 	.globl _e4vm_math_devide
                             22 	.globl _e4vm_math_mod
                             23 	.globl _e4vm_math_inc
                             24 	.globl _e4vm_math_dec
                             25 	.globl _e4vm_math_add_core_words
                             26 ;--------------------------------------------------------
                             27 ; special function registers
                             28 ;--------------------------------------------------------
                             29 ;--------------------------------------------------------
                             30 ; ram data
                             31 ;--------------------------------------------------------
                             32 	.area _DATA
                             33 ;--------------------------------------------------------
                             34 ; ram data
                             35 ;--------------------------------------------------------
                             36 	.area _INITIALIZED
                             37 ;--------------------------------------------------------
                             38 ; absolute external ram data
                             39 ;--------------------------------------------------------
                             40 	.area _DABS (ABS)
                             41 ;--------------------------------------------------------
                             42 ; global & static initialisations
                             43 ;--------------------------------------------------------
                             44 	.area _HOME
                             45 	.area _GSINIT
                             46 	.area _GSFINAL
                             47 	.area _GSINIT
                             48 ;--------------------------------------------------------
                             49 ; Home
                             50 ;--------------------------------------------------------
                             51 	.area _HOME
                             52 	.area _HOME
                             53 ;--------------------------------------------------------
                             54 ; code
                             55 ;--------------------------------------------------------
                             56 	.area _CODE
                             57 ;e4vm_math.c:25: void e4vm_math_minus (e4vm_type_x4thPtr *v)
                             58 ;	---------------------------------
                             59 ; Function e4vm_math_minus
                             60 ; ---------------------------------
   0000                      61 _e4vm_math_minus::
   0000 CDr00r00      [17]   62 	call	___sdcc_enter_ix
                             63 ;e4vm_math.c:27: (*v)->ds_p = (*v)->ds_p - 1;
   0003 DD 4E 04      [19]   64 	ld	c, 4 (ix)
   0006 DD 46 05      [19]   65 	ld	b, 5 (ix)
   0009 69            [ 4]   66 	ld	l, c
   000A 60            [ 4]   67 	ld	h, b
   000B 5E            [ 7]   68 	ld	e, (hl)
   000C 23            [ 6]   69 	inc	hl
   000D 56            [ 7]   70 	ld	d, (hl)
   000E 21 86 00      [10]   71 	ld	hl, #0x0086
   0011 19            [11]   72 	add	hl, de
   0012 5E            [ 7]   73 	ld	e, (hl)
   0013 23            [ 6]   74 	inc	hl
   0014 56            [ 7]   75 	ld	d, (hl)
   0015 2B            [ 6]   76 	dec	hl
   0016 1B            [ 6]   77 	dec	de
   0017 73            [ 7]   78 	ld	(hl), e
   0018 23            [ 6]   79 	inc	hl
   0019 72            [ 7]   80 	ld	(hl), d
                             81 ;e4vm_math.c:28: (*v)->ds[(*v)->ds_p - 1] = (*v)->ds[(*v)->ds_p - 1] - (*v)->ds[(*v)->ds_p];
   001A 69            [ 4]   82 	ld	l, c
   001B 60            [ 4]   83 	ld	h, b
   001C 4E            [ 7]   84 	ld	c, (hl)
   001D 23            [ 6]   85 	inc	hl
   001E 46            [ 7]   86 	ld	b, (hl)
   001F 21 44 00      [10]   87 	ld	hl, #0x0044
   0022 09            [11]   88 	add	hl, bc
   0023 EB            [ 4]   89 	ex	de, hl
   0024 69            [ 4]   90 	ld	l, c
   0025 60            [ 4]   91 	ld	h, b
   0026 01 86 00      [10]   92 	ld	bc, #0x0086
   0029 09            [11]   93 	add	hl, bc
   002A 7E            [ 7]   94 	ld	a, (hl)
   002B 23            [ 6]   95 	inc	hl
   002C 66            [ 7]   96 	ld	h, (hl)
   002D 6F            [ 4]   97 	ld	l, a
   002E 3D            [ 4]   98 	dec	a
   002F 87            [ 4]   99 	add	a, a
   0030 83            [ 4]  100 	add	a, e
   0031 4F            [ 4]  101 	ld	c, a
   0032 3E 00         [ 7]  102 	ld	a, #0x00
   0034 8A            [ 4]  103 	adc	a, d
   0035 47            [ 4]  104 	ld	b, a
   0036 29            [11]  105 	add	hl, hl
   0037 19            [11]  106 	add	hl, de
   0038 5E            [ 7]  107 	ld	e, (hl)
   0039 23            [ 6]  108 	inc	hl
   003A 56            [ 7]  109 	ld	d, (hl)
   003B 69            [ 4]  110 	ld	l, c
   003C 60            [ 4]  111 	ld	h, b
   003D 7E            [ 7]  112 	ld	a, (hl)
   003E 23            [ 6]  113 	inc	hl
   003F 66            [ 7]  114 	ld	h, (hl)
   0040 93            [ 4]  115 	sub	a, e
   0041 5F            [ 4]  116 	ld	e, a
   0042 7C            [ 4]  117 	ld	a, h
   0043 9A            [ 4]  118 	sbc	a, d
   0044 57            [ 4]  119 	ld	d, a
   0045 7B            [ 4]  120 	ld	a, e
   0046 02            [ 7]  121 	ld	(bc), a
   0047 03            [ 6]  122 	inc	bc
   0048 7A            [ 4]  123 	ld	a, d
   0049 02            [ 7]  124 	ld	(bc), a
                            125 ;e4vm_math.c:29: }
   004A DD E1         [14]  126 	pop	ix
   004C C9            [10]  127 	ret
                            128 ;e4vm_math.c:32: void e4vm_math_plus (e4vm_type_x4thPtr *v)
                            129 ;	---------------------------------
                            130 ; Function e4vm_math_plus
                            131 ; ---------------------------------
   004D                     132 _e4vm_math_plus::
   004D CDr00r00      [17]  133 	call	___sdcc_enter_ix
                            134 ;e4vm_math.c:34: (*v)->ds_p = (*v)->ds_p + 1;
   0050 DD 4E 04      [19]  135 	ld	c, 4 (ix)
   0053 DD 46 05      [19]  136 	ld	b, 5 (ix)
   0056 69            [ 4]  137 	ld	l, c
   0057 60            [ 4]  138 	ld	h, b
   0058 5E            [ 7]  139 	ld	e, (hl)
   0059 23            [ 6]  140 	inc	hl
   005A 56            [ 7]  141 	ld	d, (hl)
   005B 21 86 00      [10]  142 	ld	hl, #0x0086
   005E 19            [11]  143 	add	hl, de
   005F 5E            [ 7]  144 	ld	e, (hl)
   0060 23            [ 6]  145 	inc	hl
   0061 56            [ 7]  146 	ld	d, (hl)
   0062 2B            [ 6]  147 	dec	hl
   0063 13            [ 6]  148 	inc	de
   0064 7A            [ 4]  149 	ld	a, d
   0065 73            [ 7]  150 	ld	(hl), e
   0066 23            [ 6]  151 	inc	hl
   0067 77            [ 7]  152 	ld	(hl), a
                            153 ;e4vm_math.c:35: (*v)->ds[(*v)->ds_p - 1] = (*v)->ds[(*v)->ds_p - 1] + (*v)->ds[(*v)->ds_p];
   0068 69            [ 4]  154 	ld	l, c
   0069 60            [ 4]  155 	ld	h, b
   006A 4E            [ 7]  156 	ld	c, (hl)
   006B 23            [ 6]  157 	inc	hl
   006C 46            [ 7]  158 	ld	b, (hl)
   006D 21 44 00      [10]  159 	ld	hl, #0x0044
   0070 09            [11]  160 	add	hl, bc
   0071 EB            [ 4]  161 	ex	de, hl
   0072 69            [ 4]  162 	ld	l, c
   0073 60            [ 4]  163 	ld	h, b
   0074 01 86 00      [10]  164 	ld	bc, #0x0086
   0077 09            [11]  165 	add	hl, bc
   0078 7E            [ 7]  166 	ld	a, (hl)
   0079 23            [ 6]  167 	inc	hl
   007A 66            [ 7]  168 	ld	h, (hl)
   007B 6F            [ 4]  169 	ld	l, a
   007C 3D            [ 4]  170 	dec	a
   007D 87            [ 4]  171 	add	a, a
   007E 83            [ 4]  172 	add	a, e
   007F 4F            [ 4]  173 	ld	c, a
   0080 3E 00         [ 7]  174 	ld	a, #0x00
   0082 8A            [ 4]  175 	adc	a, d
   0083 47            [ 4]  176 	ld	b, a
   0084 29            [11]  177 	add	hl, hl
   0085 19            [11]  178 	add	hl, de
   0086 5E            [ 7]  179 	ld	e, (hl)
   0087 23            [ 6]  180 	inc	hl
   0088 56            [ 7]  181 	ld	d, (hl)
   0089 69            [ 4]  182 	ld	l, c
   008A 60            [ 4]  183 	ld	h, b
   008B 7E            [ 7]  184 	ld	a, (hl)
   008C 23            [ 6]  185 	inc	hl
   008D 66            [ 7]  186 	ld	h, (hl)
   008E 6F            [ 4]  187 	ld	l, a
   008F 19            [11]  188 	add	hl, de
   0090 EB            [ 4]  189 	ex	de, hl
   0091 7B            [ 4]  190 	ld	a, e
   0092 02            [ 7]  191 	ld	(bc), a
   0093 03            [ 6]  192 	inc	bc
   0094 7A            [ 4]  193 	ld	a, d
   0095 02            [ 7]  194 	ld	(bc), a
                            195 ;e4vm_math.c:36: }
   0096 DD E1         [14]  196 	pop	ix
   0098 C9            [10]  197 	ret
                            198 ;e4vm_math.c:39: void e4vm_math_multiply (e4vm_type_x4thPtr *v)
                            199 ;	---------------------------------
                            200 ; Function e4vm_math_multiply
                            201 ; ---------------------------------
   0099                     202 _e4vm_math_multiply::
   0099 CDr00r00      [17]  203 	call	___sdcc_enter_ix
                            204 ;e4vm_math.c:41: (*v)->ds_p = (*v)->ds_p - 1;
   009C DD 4E 04      [19]  205 	ld	c, 4 (ix)
   009F DD 46 05      [19]  206 	ld	b, 5 (ix)
   00A2 69            [ 4]  207 	ld	l, c
   00A3 60            [ 4]  208 	ld	h, b
   00A4 5E            [ 7]  209 	ld	e, (hl)
   00A5 23            [ 6]  210 	inc	hl
   00A6 56            [ 7]  211 	ld	d, (hl)
   00A7 21 86 00      [10]  212 	ld	hl, #0x0086
   00AA 19            [11]  213 	add	hl, de
   00AB 5E            [ 7]  214 	ld	e, (hl)
   00AC 23            [ 6]  215 	inc	hl
   00AD 56            [ 7]  216 	ld	d, (hl)
   00AE 2B            [ 6]  217 	dec	hl
   00AF 1B            [ 6]  218 	dec	de
   00B0 73            [ 7]  219 	ld	(hl), e
   00B1 23            [ 6]  220 	inc	hl
   00B2 72            [ 7]  221 	ld	(hl), d
                            222 ;e4vm_math.c:42: (*v)->ds[(*v)->ds_p - 1] = (*v)->ds[(*v)->ds_p - 1] * (*v)->ds[(*v)->ds_p];
   00B3 69            [ 4]  223 	ld	l, c
   00B4 60            [ 4]  224 	ld	h, b
   00B5 4E            [ 7]  225 	ld	c, (hl)
   00B6 23            [ 6]  226 	inc	hl
   00B7 46            [ 7]  227 	ld	b, (hl)
   00B8 21 44 00      [10]  228 	ld	hl, #0x0044
   00BB 09            [11]  229 	add	hl, bc
   00BC EB            [ 4]  230 	ex	de, hl
   00BD 69            [ 4]  231 	ld	l, c
   00BE 60            [ 4]  232 	ld	h, b
   00BF 01 86 00      [10]  233 	ld	bc, #0x0086
   00C2 09            [11]  234 	add	hl, bc
   00C3 7E            [ 7]  235 	ld	a, (hl)
   00C4 23            [ 6]  236 	inc	hl
   00C5 66            [ 7]  237 	ld	h, (hl)
   00C6 6F            [ 4]  238 	ld	l, a
   00C7 3D            [ 4]  239 	dec	a
   00C8 87            [ 4]  240 	add	a, a
   00C9 83            [ 4]  241 	add	a, e
   00CA 4F            [ 4]  242 	ld	c, a
   00CB 3E 00         [ 7]  243 	ld	a, #0x00
   00CD 8A            [ 4]  244 	adc	a, d
   00CE 47            [ 4]  245 	ld	b, a
   00CF 29            [11]  246 	add	hl, hl
   00D0 19            [11]  247 	add	hl, de
   00D1 5E            [ 7]  248 	ld	e, (hl)
   00D2 23            [ 6]  249 	inc	hl
   00D3 56            [ 7]  250 	ld	d, (hl)
   00D4 69            [ 4]  251 	ld	l, c
   00D5 60            [ 4]  252 	ld	h, b
   00D6 7E            [ 7]  253 	ld	a, (hl)
   00D7 23            [ 6]  254 	inc	hl
   00D8 66            [ 7]  255 	ld	h, (hl)
   00D9 6F            [ 4]  256 	ld	l, a
   00DA C5            [11]  257 	push	bc
   00DB D5            [11]  258 	push	de
   00DC E5            [11]  259 	push	hl
   00DD CDr00r00      [17]  260 	call	__mulint
   00E0 F1            [10]  261 	pop	af
   00E1 F1            [10]  262 	pop	af
   00E2 EB            [ 4]  263 	ex	de,hl
   00E3 C1            [10]  264 	pop	bc
   00E4 7B            [ 4]  265 	ld	a, e
   00E5 02            [ 7]  266 	ld	(bc), a
   00E6 03            [ 6]  267 	inc	bc
   00E7 7A            [ 4]  268 	ld	a, d
   00E8 02            [ 7]  269 	ld	(bc), a
                            270 ;e4vm_math.c:43: }
   00E9 DD E1         [14]  271 	pop	ix
   00EB C9            [10]  272 	ret
                            273 ;e4vm_math.c:46: void e4vm_math_devide (e4vm_type_x4thPtr *v)
                            274 ;	---------------------------------
                            275 ; Function e4vm_math_devide
                            276 ; ---------------------------------
   00EC                     277 _e4vm_math_devide::
   00EC CDr00r00      [17]  278 	call	___sdcc_enter_ix
                            279 ;e4vm_math.c:48: (*v)->ds_p = (*v)->ds_p - 1;
   00EF DD 4E 04      [19]  280 	ld	c, 4 (ix)
   00F2 DD 46 05      [19]  281 	ld	b, 5 (ix)
   00F5 69            [ 4]  282 	ld	l, c
   00F6 60            [ 4]  283 	ld	h, b
   00F7 5E            [ 7]  284 	ld	e, (hl)
   00F8 23            [ 6]  285 	inc	hl
   00F9 56            [ 7]  286 	ld	d, (hl)
   00FA 21 86 00      [10]  287 	ld	hl, #0x0086
   00FD 19            [11]  288 	add	hl, de
   00FE 5E            [ 7]  289 	ld	e, (hl)
   00FF 23            [ 6]  290 	inc	hl
   0100 56            [ 7]  291 	ld	d, (hl)
   0101 2B            [ 6]  292 	dec	hl
   0102 1B            [ 6]  293 	dec	de
   0103 73            [ 7]  294 	ld	(hl), e
   0104 23            [ 6]  295 	inc	hl
   0105 72            [ 7]  296 	ld	(hl), d
                            297 ;e4vm_math.c:49: (*v)->ds[(*v)->ds_p - 1] = __DIVFS((*v)->ds[(*v)->ds_p - 1], (*v)->ds[(*v)->ds_p]);
   0106 69            [ 4]  298 	ld	l, c
   0107 60            [ 4]  299 	ld	h, b
   0108 4E            [ 7]  300 	ld	c, (hl)
   0109 23            [ 6]  301 	inc	hl
   010A 46            [ 7]  302 	ld	b, (hl)
   010B 21 44 00      [10]  303 	ld	hl, #0x0044
   010E 09            [11]  304 	add	hl, bc
   010F EB            [ 4]  305 	ex	de, hl
   0110 69            [ 4]  306 	ld	l, c
   0111 60            [ 4]  307 	ld	h, b
   0112 01 86 00      [10]  308 	ld	bc, #0x0086
   0115 09            [11]  309 	add	hl, bc
   0116 7E            [ 7]  310 	ld	a, (hl)
   0117 23            [ 6]  311 	inc	hl
   0118 66            [ 7]  312 	ld	h, (hl)
   0119 6F            [ 4]  313 	ld	l, a
   011A 3D            [ 4]  314 	dec	a
   011B 87            [ 4]  315 	add	a, a
   011C 83            [ 4]  316 	add	a, e
   011D 4F            [ 4]  317 	ld	c, a
   011E 3E 00         [ 7]  318 	ld	a, #0x00
   0120 8A            [ 4]  319 	adc	a, d
   0121 47            [ 4]  320 	ld	b, a
   0122 29            [11]  321 	add	hl, hl
   0123 19            [11]  322 	add	hl, de
   0124 5E            [ 7]  323 	ld	e, (hl)
   0125 23            [ 6]  324 	inc	hl
   0126 56            [ 7]  325 	ld	d, (hl)
   0127 69            [ 4]  326 	ld	l, c
   0128 60            [ 4]  327 	ld	h, b
   0129 7E            [ 7]  328 	ld	a, (hl)
   012A 23            [ 6]  329 	inc	hl
   012B 66            [ 7]  330 	ld	h, (hl)
   012C 6F            [ 4]  331 	ld	l, a
   012D C5            [11]  332 	push	bc
   012E D5            [11]  333 	push	de
   012F E5            [11]  334 	push	hl
   0130 CDr00r00      [17]  335 	call	_SYSTEM_DIVS
   0133 F1            [10]  336 	pop	af
   0134 F1            [10]  337 	pop	af
   0135 EB            [ 4]  338 	ex	de,hl
   0136 C1            [10]  339 	pop	bc
   0137 7B            [ 4]  340 	ld	a, e
   0138 02            [ 7]  341 	ld	(bc), a
   0139 03            [ 6]  342 	inc	bc
   013A 7A            [ 4]  343 	ld	a, d
   013B 02            [ 7]  344 	ld	(bc), a
                            345 ;e4vm_math.c:50: }
   013C DD E1         [14]  346 	pop	ix
   013E C9            [10]  347 	ret
                            348 ;e4vm_math.c:53: void e4vm_math_mod (e4vm_type_x4thPtr *v)
                            349 ;	---------------------------------
                            350 ; Function e4vm_math_mod
                            351 ; ---------------------------------
   013F                     352 _e4vm_math_mod::
   013F CDr00r00      [17]  353 	call	___sdcc_enter_ix
                            354 ;e4vm_math.c:55: (*v)->ds_p = (*v)->ds_p - 1;
   0142 DD 4E 04      [19]  355 	ld	c, 4 (ix)
   0145 DD 46 05      [19]  356 	ld	b, 5 (ix)
   0148 69            [ 4]  357 	ld	l, c
   0149 60            [ 4]  358 	ld	h, b
   014A 5E            [ 7]  359 	ld	e, (hl)
   014B 23            [ 6]  360 	inc	hl
   014C 56            [ 7]  361 	ld	d, (hl)
   014D 21 86 00      [10]  362 	ld	hl, #0x0086
   0150 19            [11]  363 	add	hl, de
   0151 5E            [ 7]  364 	ld	e, (hl)
   0152 23            [ 6]  365 	inc	hl
   0153 56            [ 7]  366 	ld	d, (hl)
   0154 2B            [ 6]  367 	dec	hl
   0155 1B            [ 6]  368 	dec	de
   0156 73            [ 7]  369 	ld	(hl), e
   0157 23            [ 6]  370 	inc	hl
   0158 72            [ 7]  371 	ld	(hl), d
                            372 ;e4vm_math.c:56: (*v)->ds[(*v)->ds_p - 1] = __MODFS((*v)->ds[(*v)->ds_p - 1], (*v)->ds[(*v)->ds_p]);
   0159 69            [ 4]  373 	ld	l, c
   015A 60            [ 4]  374 	ld	h, b
   015B 4E            [ 7]  375 	ld	c, (hl)
   015C 23            [ 6]  376 	inc	hl
   015D 46            [ 7]  377 	ld	b, (hl)
   015E 21 44 00      [10]  378 	ld	hl, #0x0044
   0161 09            [11]  379 	add	hl, bc
   0162 EB            [ 4]  380 	ex	de, hl
   0163 69            [ 4]  381 	ld	l, c
   0164 60            [ 4]  382 	ld	h, b
   0165 01 86 00      [10]  383 	ld	bc, #0x0086
   0168 09            [11]  384 	add	hl, bc
   0169 7E            [ 7]  385 	ld	a, (hl)
   016A 23            [ 6]  386 	inc	hl
   016B 66            [ 7]  387 	ld	h, (hl)
   016C 6F            [ 4]  388 	ld	l, a
   016D 3D            [ 4]  389 	dec	a
   016E 87            [ 4]  390 	add	a, a
   016F 83            [ 4]  391 	add	a, e
   0170 4F            [ 4]  392 	ld	c, a
   0171 3E 00         [ 7]  393 	ld	a, #0x00
   0173 8A            [ 4]  394 	adc	a, d
   0174 47            [ 4]  395 	ld	b, a
   0175 29            [11]  396 	add	hl, hl
   0176 19            [11]  397 	add	hl, de
   0177 5E            [ 7]  398 	ld	e, (hl)
   0178 23            [ 6]  399 	inc	hl
   0179 56            [ 7]  400 	ld	d, (hl)
   017A 69            [ 4]  401 	ld	l, c
   017B 60            [ 4]  402 	ld	h, b
   017C 7E            [ 7]  403 	ld	a, (hl)
   017D 23            [ 6]  404 	inc	hl
   017E 66            [ 7]  405 	ld	h, (hl)
   017F 6F            [ 4]  406 	ld	l, a
   0180 C5            [11]  407 	push	bc
   0181 D5            [11]  408 	push	de
   0182 E5            [11]  409 	push	hl
   0183 CDr00r00      [17]  410 	call	_SYSTEM_MODS
   0186 F1            [10]  411 	pop	af
   0187 F1            [10]  412 	pop	af
   0188 EB            [ 4]  413 	ex	de,hl
   0189 C1            [10]  414 	pop	bc
   018A 7B            [ 4]  415 	ld	a, e
   018B 02            [ 7]  416 	ld	(bc), a
   018C 03            [ 6]  417 	inc	bc
   018D 7A            [ 4]  418 	ld	a, d
   018E 02            [ 7]  419 	ld	(bc), a
                            420 ;e4vm_math.c:57: }
   018F DD E1         [14]  421 	pop	ix
   0191 C9            [10]  422 	ret
                            423 ;e4vm_math.c:60: void e4vm_math_inc (e4vm_type_x4thPtr *v)
                            424 ;	---------------------------------
                            425 ; Function e4vm_math_inc
                            426 ; ---------------------------------
   0192                     427 _e4vm_math_inc::
   0192 CDr00r00      [17]  428 	call	___sdcc_enter_ix
                            429 ;e4vm_math.c:62: (*v)->ds[(*v)->ds_p - 1] = (*v)->ds[(*v)->ds_p - 1] + 1;
   0195 DD 6E 04      [19]  430 	ld	l, 4 (ix)
   0198 DD 66 05      [19]  431 	ld	h, 5 (ix)
   019B 4E            [ 7]  432 	ld	c, (hl)
   019C 23            [ 6]  433 	inc	hl
   019D 46            [ 7]  434 	ld	b, (hl)
   019E 21 44 00      [10]  435 	ld	hl, #0x0044
   01A1 09            [11]  436 	add	hl, bc
   01A2 EB            [ 4]  437 	ex	de, hl
   01A3 69            [ 4]  438 	ld	l, c
   01A4 60            [ 4]  439 	ld	h, b
   01A5 01 86 00      [10]  440 	ld	bc, #0x0086
   01A8 09            [11]  441 	add	hl, bc
   01A9 7E            [ 7]  442 	ld	a, (hl)
   01AA 3D            [ 4]  443 	dec	a
   01AB 87            [ 4]  444 	add	a, a
   01AC 6F            [ 4]  445 	ld	l, a
   01AD 26 00         [ 7]  446 	ld	h, #0x00
   01AF 19            [11]  447 	add	hl, de
   01B0 4E            [ 7]  448 	ld	c, (hl)
   01B1 23            [ 6]  449 	inc	hl
   01B2 46            [ 7]  450 	ld	b, (hl)
   01B3 2B            [ 6]  451 	dec	hl
   01B4 03            [ 6]  452 	inc	bc
   01B5 78            [ 4]  453 	ld	a, b
   01B6 71            [ 7]  454 	ld	(hl), c
   01B7 23            [ 6]  455 	inc	hl
   01B8 77            [ 7]  456 	ld	(hl), a
                            457 ;e4vm_math.c:63: }
   01B9 DD E1         [14]  458 	pop	ix
   01BB C9            [10]  459 	ret
                            460 ;e4vm_math.c:66: void e4vm_math_dec (e4vm_type_x4thPtr *v)
                            461 ;	---------------------------------
                            462 ; Function e4vm_math_dec
                            463 ; ---------------------------------
   01BC                     464 _e4vm_math_dec::
   01BC CDr00r00      [17]  465 	call	___sdcc_enter_ix
                            466 ;e4vm_math.c:68: (*v)->ds[(*v)->ds_p - 1] = (*v)->ds[(*v)->ds_p - 1] - 1;
   01BF DD 6E 04      [19]  467 	ld	l, 4 (ix)
   01C2 DD 66 05      [19]  468 	ld	h, 5 (ix)
   01C5 4E            [ 7]  469 	ld	c, (hl)
   01C6 23            [ 6]  470 	inc	hl
   01C7 46            [ 7]  471 	ld	b, (hl)
   01C8 21 44 00      [10]  472 	ld	hl, #0x0044
   01CB 09            [11]  473 	add	hl, bc
   01CC EB            [ 4]  474 	ex	de, hl
   01CD 69            [ 4]  475 	ld	l, c
   01CE 60            [ 4]  476 	ld	h, b
   01CF 01 86 00      [10]  477 	ld	bc, #0x0086
   01D2 09            [11]  478 	add	hl, bc
   01D3 7E            [ 7]  479 	ld	a, (hl)
   01D4 3D            [ 4]  480 	dec	a
   01D5 87            [ 4]  481 	add	a, a
   01D6 6F            [ 4]  482 	ld	l, a
   01D7 26 00         [ 7]  483 	ld	h, #0x00
   01D9 19            [11]  484 	add	hl, de
   01DA 4E            [ 7]  485 	ld	c, (hl)
   01DB 23            [ 6]  486 	inc	hl
   01DC 46            [ 7]  487 	ld	b, (hl)
   01DD 2B            [ 6]  488 	dec	hl
   01DE 0B            [ 6]  489 	dec	bc
   01DF 71            [ 7]  490 	ld	(hl), c
   01E0 23            [ 6]  491 	inc	hl
   01E1 70            [ 7]  492 	ld	(hl), b
                            493 ;e4vm_math.c:69: }
   01E2 DD E1         [14]  494 	pop	ix
   01E4 C9            [10]  495 	ret
                            496 ;e4vm_math.c:72: void e4vm_math_add_core_words (e4vm_type_x4thPtr *v)
                            497 ;	---------------------------------
                            498 ; Function e4vm_math_add_core_words
                            499 ; ---------------------------------
   01E5                     500 _e4vm_math_add_core_words::
   01E5 CDr00r00      [17]  501 	call	___sdcc_enter_ix
   01E8 21 C8 FF      [10]  502 	ld	hl, #-56
   01EB 39            [11]  503 	add	hl, sp
   01EC F9            [ 6]  504 	ld	sp, hl
                            505 ;e4vm_math.c:81: __MOVE((CHAR*)"-", _str__8, 2);
   01ED 21 00 00      [10]  506 	ld	hl, #0
   01F0 39            [11]  507 	add	hl, sp
   01F1 4D            [ 4]  508 	ld	c, l
   01F2 44            [ 4]  509 	ld	b, h
   01F3 E5            [11]  510 	push	hl
   01F4 11 02 00      [10]  511 	ld	de, #0x0002
   01F7 D5            [11]  512 	push	de
   01F8 11r29r03      [10]  513 	ld	de, #___str_0
   01FB D5            [11]  514 	push	de
   01FC C5            [11]  515 	push	bc
   01FD CDr00r00      [17]  516 	call	_memcpy
   0200 F1            [10]  517 	pop	af
   0201 F1            [10]  518 	pop	af
   0202 F1            [10]  519 	pop	af
   0203 E1            [10]  520 	pop	hl
                            521 ;e4vm_math.c:82: e4vm_utils_add_core_word(v, (void*)_str__8, e4vm_math_minus, 0);
   0204 AF            [ 4]  522 	xor	a, a
   0205 F5            [11]  523 	push	af
   0206 33            [ 6]  524 	inc	sp
   0207 01r00r00      [10]  525 	ld	bc, #_e4vm_math_minus
   020A C5            [11]  526 	push	bc
   020B E5            [11]  527 	push	hl
   020C DD 6E 04      [19]  528 	ld	l, 4 (ix)
   020F DD 66 05      [19]  529 	ld	h, 5 (ix)
   0212 E5            [11]  530 	push	hl
   0213 CDr00r00      [17]  531 	call	_e4vm_utils_add_core_word
   0216 F1            [10]  532 	pop	af
   0217 F1            [10]  533 	pop	af
   0218 F1            [10]  534 	pop	af
   0219 33            [ 6]  535 	inc	sp
                            536 ;e4vm_math.c:83: __MOVE((CHAR*)"+", _str__7, 2);
   021A 21 08 00      [10]  537 	ld	hl, #8
   021D 39            [11]  538 	add	hl, sp
   021E 4D            [ 4]  539 	ld	c, l
   021F 44            [ 4]  540 	ld	b, h
   0220 E5            [11]  541 	push	hl
   0221 11 02 00      [10]  542 	ld	de, #0x0002
   0224 D5            [11]  543 	push	de
   0225 11r2Br03      [10]  544 	ld	de, #___str_1
   0228 D5            [11]  545 	push	de
   0229 C5            [11]  546 	push	bc
   022A CDr00r00      [17]  547 	call	_memcpy
   022D F1            [10]  548 	pop	af
   022E F1            [10]  549 	pop	af
   022F F1            [10]  550 	pop	af
   0230 E1            [10]  551 	pop	hl
                            552 ;e4vm_math.c:84: e4vm_utils_add_core_word(v, (void*)_str__7, e4vm_math_plus, 0);
   0231 AF            [ 4]  553 	xor	a, a
   0232 F5            [11]  554 	push	af
   0233 33            [ 6]  555 	inc	sp
   0234 01r4Dr00      [10]  556 	ld	bc, #_e4vm_math_plus
   0237 C5            [11]  557 	push	bc
   0238 E5            [11]  558 	push	hl
   0239 DD 6E 04      [19]  559 	ld	l, 4 (ix)
   023C DD 66 05      [19]  560 	ld	h, 5 (ix)
   023F E5            [11]  561 	push	hl
   0240 CDr00r00      [17]  562 	call	_e4vm_utils_add_core_word
   0243 F1            [10]  563 	pop	af
   0244 F1            [10]  564 	pop	af
   0245 F1            [10]  565 	pop	af
   0246 33            [ 6]  566 	inc	sp
                            567 ;e4vm_math.c:85: __MOVE((CHAR*)"*", _str__6, 2);
   0247 21 10 00      [10]  568 	ld	hl, #16
   024A 39            [11]  569 	add	hl, sp
   024B 4D            [ 4]  570 	ld	c, l
   024C 44            [ 4]  571 	ld	b, h
   024D E5            [11]  572 	push	hl
   024E 11 02 00      [10]  573 	ld	de, #0x0002
   0251 D5            [11]  574 	push	de
   0252 11r2Dr03      [10]  575 	ld	de, #___str_2
   0255 D5            [11]  576 	push	de
   0256 C5            [11]  577 	push	bc
   0257 CDr00r00      [17]  578 	call	_memcpy
   025A F1            [10]  579 	pop	af
   025B F1            [10]  580 	pop	af
   025C F1            [10]  581 	pop	af
   025D E1            [10]  582 	pop	hl
                            583 ;e4vm_math.c:86: e4vm_utils_add_core_word(v, (void*)_str__6, e4vm_math_multiply, 0);
   025E AF            [ 4]  584 	xor	a, a
   025F F5            [11]  585 	push	af
   0260 33            [ 6]  586 	inc	sp
   0261 01r99r00      [10]  587 	ld	bc, #_e4vm_math_multiply
   0264 C5            [11]  588 	push	bc
   0265 E5            [11]  589 	push	hl
   0266 DD 6E 04      [19]  590 	ld	l, 4 (ix)
   0269 DD 66 05      [19]  591 	ld	h, 5 (ix)
   026C E5            [11]  592 	push	hl
   026D CDr00r00      [17]  593 	call	_e4vm_utils_add_core_word
   0270 F1            [10]  594 	pop	af
   0271 F1            [10]  595 	pop	af
   0272 F1            [10]  596 	pop	af
   0273 33            [ 6]  597 	inc	sp
                            598 ;e4vm_math.c:87: __MOVE((CHAR*)"/", _str__5, 2);
   0274 21 18 00      [10]  599 	ld	hl, #24
   0277 39            [11]  600 	add	hl, sp
   0278 4D            [ 4]  601 	ld	c, l
   0279 44            [ 4]  602 	ld	b, h
   027A E5            [11]  603 	push	hl
   027B 11 02 00      [10]  604 	ld	de, #0x0002
   027E D5            [11]  605 	push	de
   027F 11r2Fr03      [10]  606 	ld	de, #___str_3
   0282 D5            [11]  607 	push	de
   0283 C5            [11]  608 	push	bc
   0284 CDr00r00      [17]  609 	call	_memcpy
   0287 F1            [10]  610 	pop	af
   0288 F1            [10]  611 	pop	af
   0289 F1            [10]  612 	pop	af
   028A E1            [10]  613 	pop	hl
                            614 ;e4vm_math.c:88: e4vm_utils_add_core_word(v, (void*)_str__5, e4vm_math_devide, 0);
   028B AF            [ 4]  615 	xor	a, a
   028C F5            [11]  616 	push	af
   028D 33            [ 6]  617 	inc	sp
   028E 01rECr00      [10]  618 	ld	bc, #_e4vm_math_devide
   0291 C5            [11]  619 	push	bc
   0292 E5            [11]  620 	push	hl
   0293 DD 6E 04      [19]  621 	ld	l, 4 (ix)
   0296 DD 66 05      [19]  622 	ld	h, 5 (ix)
   0299 E5            [11]  623 	push	hl
   029A CDr00r00      [17]  624 	call	_e4vm_utils_add_core_word
   029D F1            [10]  625 	pop	af
   029E F1            [10]  626 	pop	af
   029F F1            [10]  627 	pop	af
   02A0 33            [ 6]  628 	inc	sp
                            629 ;e4vm_math.c:89: __MOVE((CHAR*)"mod", _str__4, 4);
   02A1 21 20 00      [10]  630 	ld	hl, #32
   02A4 39            [11]  631 	add	hl, sp
   02A5 4D            [ 4]  632 	ld	c, l
   02A6 44            [ 4]  633 	ld	b, h
   02A7 E5            [11]  634 	push	hl
   02A8 11 04 00      [10]  635 	ld	de, #0x0004
   02AB D5            [11]  636 	push	de
   02AC 11r31r03      [10]  637 	ld	de, #___str_4
   02AF D5            [11]  638 	push	de
   02B0 C5            [11]  639 	push	bc
   02B1 CDr00r00      [17]  640 	call	_memcpy
   02B4 F1            [10]  641 	pop	af
   02B5 F1            [10]  642 	pop	af
   02B6 F1            [10]  643 	pop	af
   02B7 E1            [10]  644 	pop	hl
                            645 ;e4vm_math.c:90: e4vm_utils_add_core_word(v, (void*)_str__4, e4vm_math_mod, 0);
   02B8 AF            [ 4]  646 	xor	a, a
   02B9 F5            [11]  647 	push	af
   02BA 33            [ 6]  648 	inc	sp
   02BB 01r3Fr01      [10]  649 	ld	bc, #_e4vm_math_mod
   02BE C5            [11]  650 	push	bc
   02BF E5            [11]  651 	push	hl
   02C0 DD 6E 04      [19]  652 	ld	l, 4 (ix)
   02C3 DD 66 05      [19]  653 	ld	h, 5 (ix)
   02C6 E5            [11]  654 	push	hl
   02C7 CDr00r00      [17]  655 	call	_e4vm_utils_add_core_word
   02CA F1            [10]  656 	pop	af
   02CB F1            [10]  657 	pop	af
   02CC F1            [10]  658 	pop	af
   02CD 33            [ 6]  659 	inc	sp
                            660 ;e4vm_math.c:91: __MOVE((CHAR*)"1+", _str__3, 3);
   02CE 21 28 00      [10]  661 	ld	hl, #40
   02D1 39            [11]  662 	add	hl, sp
   02D2 4D            [ 4]  663 	ld	c, l
   02D3 44            [ 4]  664 	ld	b, h
   02D4 E5            [11]  665 	push	hl
   02D5 11 03 00      [10]  666 	ld	de, #0x0003
   02D8 D5            [11]  667 	push	de
   02D9 11r35r03      [10]  668 	ld	de, #___str_5
   02DC D5            [11]  669 	push	de
   02DD C5            [11]  670 	push	bc
   02DE CDr00r00      [17]  671 	call	_memcpy
   02E1 F1            [10]  672 	pop	af
   02E2 F1            [10]  673 	pop	af
   02E3 F1            [10]  674 	pop	af
   02E4 E1            [10]  675 	pop	hl
                            676 ;e4vm_math.c:92: e4vm_utils_add_core_word(v, (void*)_str__3, e4vm_math_inc, 0);
   02E5 AF            [ 4]  677 	xor	a, a
   02E6 F5            [11]  678 	push	af
   02E7 33            [ 6]  679 	inc	sp
   02E8 01r92r01      [10]  680 	ld	bc, #_e4vm_math_inc
   02EB C5            [11]  681 	push	bc
   02EC E5            [11]  682 	push	hl
   02ED DD 6E 04      [19]  683 	ld	l, 4 (ix)
   02F0 DD 66 05      [19]  684 	ld	h, 5 (ix)
   02F3 E5            [11]  685 	push	hl
   02F4 CDr00r00      [17]  686 	call	_e4vm_utils_add_core_word
   02F7 F1            [10]  687 	pop	af
   02F8 F1            [10]  688 	pop	af
   02F9 F1            [10]  689 	pop	af
   02FA 33            [ 6]  690 	inc	sp
                            691 ;e4vm_math.c:93: __MOVE((CHAR*)"1-", _str__2, 3);
   02FB 21 30 00      [10]  692 	ld	hl, #48
   02FE 39            [11]  693 	add	hl, sp
   02FF 4D            [ 4]  694 	ld	c, l
   0300 44            [ 4]  695 	ld	b, h
   0301 E5            [11]  696 	push	hl
   0302 11 03 00      [10]  697 	ld	de, #0x0003
   0305 D5            [11]  698 	push	de
   0306 11r38r03      [10]  699 	ld	de, #___str_6
   0309 D5            [11]  700 	push	de
   030A C5            [11]  701 	push	bc
   030B CDr00r00      [17]  702 	call	_memcpy
   030E F1            [10]  703 	pop	af
   030F F1            [10]  704 	pop	af
   0310 F1            [10]  705 	pop	af
   0311 E1            [10]  706 	pop	hl
                            707 ;e4vm_math.c:94: e4vm_utils_add_core_word(v, (void*)_str__2, e4vm_math_dec, 0);
   0312 AF            [ 4]  708 	xor	a, a
   0313 F5            [11]  709 	push	af
   0314 33            [ 6]  710 	inc	sp
   0315 01rBCr01      [10]  711 	ld	bc, #_e4vm_math_dec
   0318 C5            [11]  712 	push	bc
   0319 E5            [11]  713 	push	hl
   031A DD 6E 04      [19]  714 	ld	l, 4 (ix)
   031D DD 66 05      [19]  715 	ld	h, 5 (ix)
   0320 E5            [11]  716 	push	hl
   0321 CDr00r00      [17]  717 	call	_e4vm_utils_add_core_word
                            718 ;e4vm_math.c:95: }
   0324 DD F9         [10]  719 	ld	sp,ix
   0326 DD E1         [14]  720 	pop	ix
   0328 C9            [10]  721 	ret
   0329                     722 ___str_0:
   0329 2D                  723 	.ascii "-"
   032A 00                  724 	.db 0x00
   032B                     725 ___str_1:
   032B 2B                  726 	.ascii "+"
   032C 00                  727 	.db 0x00
   032D                     728 ___str_2:
   032D 2A                  729 	.ascii "*"
   032E 00                  730 	.db 0x00
   032F                     731 ___str_3:
   032F 2F                  732 	.ascii "/"
   0330 00                  733 	.db 0x00
   0331                     734 ___str_4:
   0331 6D 6F 64            735 	.ascii "mod"
   0334 00                  736 	.db 0x00
   0335                     737 ___str_5:
   0335 31 2B               738 	.ascii "1+"
   0337 00                  739 	.db 0x00
   0338                     740 ___str_6:
   0338 31 2D               741 	.ascii "1-"
   033A 00                  742 	.db 0x00
                            743 ;e4vm_math.c:99: export void *e4vm_math__init (void)
                            744 ;	---------------------------------
                            745 ; Function e4vm_math__init
                            746 ; ---------------------------------
   033B                     747 _e4vm_math__init::
                            748 ;e4vm_math.c:101: __DEFMOD;
   033B 21r3Br03      [10]  749 	LD	HL,#. 
   033E 36 C9         [10]  750 	LD (HL),#0xC9 
                            751 ;e4vm_math.c:104: __IMPORT(e4vm_type__init);
   0340 CDr00r00      [17]  752 	call	_e4vm_type__init
                            753 ;e4vm_math.c:105: __IMPORT(e4vm_utils__init);
                            754 ;e4vm_math.c:109: }
   0343 C3r00r00      [10]  755 	jp  _e4vm_utils__init
                            756 	.area _CODE
                            757 	.area _INITIALIZER
                            758 	.area _CABS (ABS)
